TI ARM Assembler Unix v20.2.0 Thu Mar 19 13:13:13 2020

Copyright (c) 1996-2018 Texas Instruments Incorporated
slnetifwifi.asm                                                      PAGE    1

       1                    ;******************************************************************************
       2                    ;* TI ARM G3 C/C++ Codegen                                          Unix v20.2.0.LTS *
       3                    ;* Date/Time created: Thu Mar 19 13:13:13 2020                                *
       4                    ;******************************************************************************
       5                            .compiler_opts --abi=eabi --arm_vmrs_si_workaround=off --code_state=16 --embedded_constants=on
       6 00000000                   .thumb
       7                    
       8                    $C$DW$CU        .dwtag  DW_TAG_compile_unit
       9                            .dwattr $C$DW$CU, DW_AT_name("/vagrant/Q1_eng_19.3.20/sdk_root/source/ti/drivers/net/wifi/slne
      10                            .dwattr $C$DW$CU, DW_AT_producer("TI TI ARM G3 C/C++ Codegen Unix v20.2.0.LTS Copyright (c) 19
      11                            .dwattr $C$DW$CU, DW_AT_TI_version(0x01)
      12                            .dwattr $C$DW$CU, DW_AT_comp_dir("/vagrant/Q1_eng_19.3.20/sdk_root/source/ti/drivers/net/wifi/
      13                            .global SlNetIfConfigWifi
      14 00000000                   .sect   ".data:SlNetIfConfigWifi", RW
      15                            .align  4
      16                            .elfsym SlNetIfConfigWifi,SYM_SIZE(88)
      17 00000000           SlNetIfConfigWifi:
      18 00000000 00000000!         .bits   SlNetIfWifi_socket,32           ; SlNetIfConfigWifi.sockCreate @ 0
      19 00000004 00000000!         .bits   SlNetIfWifi_close,32            ; SlNetIfConfigWifi.sockClose @ 32
      20 00000008 00000000          .bits           0,32
      21                                            ; SlNetIfConfigWifi.sockShutdown @ 64
      22 0000000c 00000000!         .bits   SlNetIfWifi_accept,32           ; SlNetIfConfigWifi.sockAccept @ 96
      23 00000010 00000000!         .bits   SlNetIfWifi_bind,32             ; SlNetIfConfigWifi.sockBind @ 128
      24 00000014 00000000!         .bits   SlNetIfWifi_listen,32           ; SlNetIfConfigWifi.sockListen @ 160
      25 00000018 00000000!         .bits   SlNetIfWifi_connect,32          ; SlNetIfConfigWifi.sockConnect @ 192
      26 0000001c 00000000          .bits           0,32
      27                                            ; SlNetIfConfigWifi.sockGetPeerName @ 224
      28 00000020 00000000          .bits           0,32
      29                                            ; SlNetIfConfigWifi.sockGetLocalName @ 256
      30 00000024 00000000!         .bits   SlNetIfWifi_select,32           ; SlNetIfConfigWifi.sockSelect @ 288
      31 00000028 00000000!         .bits   SlNetIfWifi_setSockOpt,32               ; SlNetIfConfigWifi.sockSetOpt @ 320
      32 0000002c 00000000!         .bits   SlNetIfWifi_getSockOpt,32               ; SlNetIfConfigWifi.sockGetOpt @ 352
      33 00000030 00000000!         .bits   SlNetIfWifi_recv,32             ; SlNetIfConfigWifi.sockRecv @ 384
      34 00000034 00000000!         .bits   SlNetIfWifi_recvFrom,32         ; SlNetIfConfigWifi.sockRecvFrom @ 416
      35 00000038 00000000!         .bits   SlNetIfWifi_send,32             ; SlNetIfConfigWifi.sockSend @ 448
      36 0000003c 00000000!         .bits   SlNetIfWifi_sendTo,32           ; SlNetIfConfigWifi.sockSendTo @ 480
      37 00000040 00000000!         .bits   SlNetIfWifi_sockstartSec,32             ; SlNetIfConfigWifi.sockstartSec @ 512
      38 00000044 00000000!         .bits   SlNetIfWifi_getHostByName,32            ; SlNetIfConfigWifi.utilGetHostByName @ 544
      39 00000048 00000000!         .bits   SlNetIfWifi_getIPAddr,32                ; SlNetIfConfigWifi.ifGetIPAddr @ 576
      40 0000004c 00000000!         .bits   SlNetIfWifi_getConnectionStatus,32              ; SlNetIfConfigWifi.ifGetConnectionSta
      41 00000050 00000000!         .bits   SlNetIfWifi_loadSecObj,32               ; SlNetIfConfigWifi.ifLoadSecObj @ 640
      42 00000054 00000000          .bits           0,32
      43                                            ; SlNetIfConfigWifi.ifCreateContext @ 672
      44                    
      45                    $C$DW$1 .dwtag  DW_TAG_variable
      46                            .dwattr $C$DW$1, DW_AT_name("SlNetIfConfigWifi")
      47                            .dwattr $C$DW$1, DW_AT_TI_symbol_name("SlNetIfConfigWifi")
      48                            .dwattr $C$DW$1, DW_AT_location[DW_OP_addr SlNetIfConfigWifi]
      49                            .dwattr $C$DW$1, DW_AT_type(*$C$DW$T$404)
      50                            .dwattr $C$DW$1, DW_AT_external
      51                            .dwattr $C$DW$1, DW_AT_decl_file("/vagrant/Q1_eng_19.3.20/sdk_root/source/ti/drivers/net/wifi/
      52                            .dwattr $C$DW$1, DW_AT_decl_line(0x41)
      53                            .dwattr $C$DW$1, DW_AT_decl_column(0x12)
      54                    
      55 00000000                   .sect   ".const:StartSecOptName"
TI ARM Assembler Unix v20.2.0 Thu Mar 19 13:13:13 2020

Copyright (c) 1996-2018 Texas Instruments Incorporated
slnetifwifi.asm                                                      PAGE    2

      56                            .align  2
      57                            .elfsym StartSecOptName,SYM_SIZE(20)
      58 00000000           StartSecOptName:
      59 00000000 0000001E          .bits           0x1e,16
      60                                            ; StartSecOptName[0] @ 0
      61 00000000 001F001E          .bits           0x1f,16
      62                                            ; StartSecOptName[1] @ 16
      63 00000004 00000020          .bits           0x20,16
      64                                            ; StartSecOptName[2] @ 32
      65 00000004 00210020          .bits           0x21,16
      66                                            ; StartSecOptName[3] @ 48
      67 00000008 00000019          .bits           0x19,16
      68                                            ; StartSecOptName[4] @ 64
      69 00000008 001A0019          .bits           0x1a,16
      70                                            ; StartSecOptName[5] @ 80
      71 0000000c 00000028          .bits           0x28,16
      72                                            ; StartSecOptName[6] @ 96
      73 0000000c 00290028          .bits           0x29,16
      74                                            ; StartSecOptName[7] @ 112
      75 00000010 0000002A          .bits           0x2a,16
      76                                            ; StartSecOptName[8] @ 128
      77 00000010 0026002A          .bits           0x26,16
      78                                            ; StartSecOptName[9] @ 144
      79                    
      80                    $C$DW$2 .dwtag  DW_TAG_variable
      81                            .dwattr $C$DW$2, DW_AT_name("StartSecOptName")
      82                            .dwattr $C$DW$2, DW_AT_TI_symbol_name("StartSecOptName")
      83                            .dwattr $C$DW$2, DW_AT_type(*$C$DW$T$784)
      84                            .dwattr $C$DW$2, DW_AT_location[DW_OP_addr StartSecOptName]
      85                            .dwattr $C$DW$2, DW_AT_decl_file("/vagrant/Q1_eng_19.3.20/sdk_root/source/ti/drivers/net/wifi/
      86                            .dwattr $C$DW$2, DW_AT_decl_line(0x5b)
      87                            .dwattr $C$DW$2, DW_AT_decl_column(0x16)
      88                    
      89 00000000                   .sect   ".const:socketType"
      90                            .align  2
      91                            .elfsym socketType,SYM_SIZE(16)
      92 00000000           socketType:
      93 00000000 00000001          .bits           0x1,16
      94                                            ; socketType[0] @ 0
      95 00000000 00020001          .bits           0x2,16
      96                                            ; socketType[1] @ 16
      97 00000004 00000003          .bits           0x3,16
      98                                            ; socketType[2] @ 32
      99 00000004 00040003          .bits           0x4,16
     100                                            ; socketType[3] @ 48
     101 00000008 00000002          .bits           0x2,16
     102                                            ; socketType[4] @ 64
     103 00000008 00030002          .bits           0x3,16
     104                                            ; socketType[5] @ 80
     105 0000000c 00000007          .bits           0x7,16
     106                                            ; socketType[6] @ 96
     107 0000000c 00080007          .bits           0x8,16
     108                                            ; socketType[7] @ 112
     109                    
     110                    $C$DW$3 .dwtag  DW_TAG_variable
TI ARM Assembler Unix v20.2.0 Thu Mar 19 13:13:13 2020

Copyright (c) 1996-2018 Texas Instruments Incorporated
slnetifwifi.asm                                                      PAGE    3

     111                            .dwattr $C$DW$3, DW_AT_name("socketType")
     112                            .dwattr $C$DW$3, DW_AT_TI_symbol_name("socketType")
     113                            .dwattr $C$DW$3, DW_AT_type(*$C$DW$T$785)
     114                            .dwattr $C$DW$3, DW_AT_location[DW_OP_addr socketType]
     115                            .dwattr $C$DW$3, DW_AT_decl_file("/vagrant/Q1_eng_19.3.20/sdk_root/source/ti/drivers/net/wifi/
     116                            .dwattr $C$DW$3, DW_AT_decl_line(0x69)
     117                            .dwattr $C$DW$3, DW_AT_decl_column(0x16)
     118                    
     119                    
     120                    $C$DW$4 .dwtag  DW_TAG_subprogram
     121                            .dwattr $C$DW$4, DW_AT_name("sl_Socket")
     122                            .dwattr $C$DW$4, DW_AT_TI_symbol_name("sl_Socket")
     123                            .dwattr $C$DW$4, DW_AT_type(*$C$DW$T$8)
     124                            .dwattr $C$DW$4, DW_AT_declaration
     125                            .dwattr $C$DW$4, DW_AT_external
     126                            .dwattr $C$DW$4, DW_AT_decl_file("/vagrant/Q1_eng_19.3.20/sdk_root/source/ti/drivers/net/wifi/
     127                            .dwattr $C$DW$4, DW_AT_decl_line(0x233)
     128                            .dwattr $C$DW$4, DW_AT_decl_column(0x06)
     129                    $C$DW$5 .dwtag  DW_TAG_formal_parameter
     130                            .dwattr $C$DW$5, DW_AT_type(*$C$DW$T$8)
     131                    
     132                    $C$DW$6 .dwtag  DW_TAG_formal_parameter
     133                            .dwattr $C$DW$6, DW_AT_type(*$C$DW$T$8)
     134                    
     135                    $C$DW$7 .dwtag  DW_TAG_formal_parameter
     136                            .dwattr $C$DW$7, DW_AT_type(*$C$DW$T$8)
     137                    
     138                            .dwendtag $C$DW$4
     139                    
     140                    
     141                    $C$DW$8 .dwtag  DW_TAG_subprogram
     142                            .dwattr $C$DW$8, DW_AT_name("sl_Close")
     143                            .dwattr $C$DW$8, DW_AT_TI_symbol_name("sl_Close")
     144                            .dwattr $C$DW$8, DW_AT_type(*$C$DW$T$8)
     145                            .dwattr $C$DW$8, DW_AT_declaration
     146                            .dwattr $C$DW$8, DW_AT_external
     147                            .dwattr $C$DW$8, DW_AT_decl_file("/vagrant/Q1_eng_19.3.20/sdk_root/source/ti/drivers/net/wifi/
     148                            .dwattr $C$DW$8, DW_AT_decl_line(0x245)
     149                            .dwattr $C$DW$8, DW_AT_decl_column(0x06)
     150                    $C$DW$9 .dwtag  DW_TAG_formal_parameter
     151                            .dwattr $C$DW$9, DW_AT_type(*$C$DW$T$8)
     152                    
     153                            .dwendtag $C$DW$8
     154                    
     155                    
     156                    $C$DW$10        .dwtag  DW_TAG_subprogram
     157                            .dwattr $C$DW$10, DW_AT_name("sl_Accept")
     158                            .dwattr $C$DW$10, DW_AT_TI_symbol_name("sl_Accept")
     159                            .dwattr $C$DW$10, DW_AT_type(*$C$DW$T$8)
     160                            .dwattr $C$DW$10, DW_AT_declaration
     161                            .dwattr $C$DW$10, DW_AT_external
     162                            .dwattr $C$DW$10, DW_AT_decl_file("/vagrant/Q1_eng_19.3.20/sdk_root/source/ti/drivers/net/wifi
     163                            .dwattr $C$DW$10, DW_AT_decl_line(0x27b)
     164                            .dwattr $C$DW$10, DW_AT_decl_column(0x06)
     165                    $C$DW$11        .dwtag  DW_TAG_formal_parameter
TI ARM Assembler Unix v20.2.0 Thu Mar 19 13:13:13 2020

Copyright (c) 1996-2018 Texas Instruments Incorporated
slnetifwifi.asm                                                      PAGE    4

     166                            .dwattr $C$DW$11, DW_AT_type(*$C$DW$T$8)
     167                    
     168                    $C$DW$12        .dwtag  DW_TAG_formal_parameter
     169                            .dwattr $C$DW$12, DW_AT_type(*$C$DW$T$708)
     170                    
     171                    $C$DW$13        .dwtag  DW_TAG_formal_parameter
     172                            .dwattr $C$DW$13, DW_AT_type(*$C$DW$T$755)
     173                    
     174                            .dwendtag $C$DW$10
     175                    
     176                    
     177                    $C$DW$14        .dwtag  DW_TAG_subprogram
     178                            .dwattr $C$DW$14, DW_AT_name("sl_Bind")
     179                            .dwattr $C$DW$14, DW_AT_TI_symbol_name("sl_Bind")
     180                            .dwattr $C$DW$14, DW_AT_type(*$C$DW$T$8)
     181                            .dwattr $C$DW$14, DW_AT_declaration
     182                            .dwattr $C$DW$14, DW_AT_external
     183                            .dwattr $C$DW$14, DW_AT_decl_file("/vagrant/Q1_eng_19.3.20/sdk_root/source/ti/drivers/net/wifi
     184                            .dwattr $C$DW$14, DW_AT_decl_line(0x299)
     185                            .dwattr $C$DW$14, DW_AT_decl_column(0x06)
     186                    $C$DW$15        .dwtag  DW_TAG_formal_parameter
     187                            .dwattr $C$DW$15, DW_AT_type(*$C$DW$T$8)
     188                    
     189                    $C$DW$16        .dwtag  DW_TAG_formal_parameter
     190                            .dwattr $C$DW$16, DW_AT_type(*$C$DW$T$707)
     191                    
     192                    $C$DW$17        .dwtag  DW_TAG_formal_parameter
     193                            .dwattr $C$DW$17, DW_AT_type(*$C$DW$T$8)
     194                    
     195                            .dwendtag $C$DW$14
     196                    
     197                    
     198                    $C$DW$18        .dwtag  DW_TAG_subprogram
     199                            .dwattr $C$DW$18, DW_AT_name("sl_Listen")
     200                            .dwattr $C$DW$18, DW_AT_TI_symbol_name("sl_Listen")
     201                            .dwattr $C$DW$18, DW_AT_type(*$C$DW$T$8)
     202                            .dwattr $C$DW$18, DW_AT_declaration
     203                            .dwattr $C$DW$18, DW_AT_external
     204                            .dwattr $C$DW$18, DW_AT_decl_file("/vagrant/Q1_eng_19.3.20/sdk_root/source/ti/drivers/net/wifi
     205                            .dwattr $C$DW$18, DW_AT_decl_line(0x2b0)
     206                            .dwattr $C$DW$18, DW_AT_decl_column(0x06)
     207                    $C$DW$19        .dwtag  DW_TAG_formal_parameter
     208                            .dwattr $C$DW$19, DW_AT_type(*$C$DW$T$8)
     209                    
     210                    $C$DW$20        .dwtag  DW_TAG_formal_parameter
     211                            .dwattr $C$DW$20, DW_AT_type(*$C$DW$T$8)
     212                    
     213                            .dwendtag $C$DW$18
     214                    
     215                    
     216                    $C$DW$21        .dwtag  DW_TAG_subprogram
     217                            .dwattr $C$DW$21, DW_AT_name("sl_Connect")
     218                            .dwattr $C$DW$21, DW_AT_TI_symbol_name("sl_Connect")
     219                            .dwattr $C$DW$21, DW_AT_type(*$C$DW$T$8)
     220                            .dwattr $C$DW$21, DW_AT_declaration
TI ARM Assembler Unix v20.2.0 Thu Mar 19 13:13:13 2020

Copyright (c) 1996-2018 Texas Instruments Incorporated
slnetifwifi.asm                                                      PAGE    5

     221                            .dwattr $C$DW$21, DW_AT_external
     222                            .dwattr $C$DW$21, DW_AT_decl_file("/vagrant/Q1_eng_19.3.20/sdk_root/source/ti/drivers/net/wifi
     223                            .dwattr $C$DW$21, DW_AT_decl_line(0x2da)
     224                            .dwattr $C$DW$21, DW_AT_decl_column(0x06)
     225                    $C$DW$22        .dwtag  DW_TAG_formal_parameter
     226                            .dwattr $C$DW$22, DW_AT_type(*$C$DW$T$8)
     227                    
     228                    $C$DW$23        .dwtag  DW_TAG_formal_parameter
     229                            .dwattr $C$DW$23, DW_AT_type(*$C$DW$T$707)
     230                    
     231                    $C$DW$24        .dwtag  DW_TAG_formal_parameter
     232                            .dwattr $C$DW$24, DW_AT_type(*$C$DW$T$8)
     233                    
     234                            .dwendtag $C$DW$21
     235                    
     236                    
     237                    $C$DW$25        .dwtag  DW_TAG_subprogram
     238                            .dwattr $C$DW$25, DW_AT_name("sl_Select")
     239                            .dwattr $C$DW$25, DW_AT_TI_symbol_name("sl_Select")
     240                            .dwattr $C$DW$25, DW_AT_type(*$C$DW$T$8)
     241                            .dwattr $C$DW$25, DW_AT_declaration
     242                            .dwattr $C$DW$25, DW_AT_external
     243                            .dwattr $C$DW$25, DW_AT_decl_file("/vagrant/Q1_eng_19.3.20/sdk_root/source/ti/drivers/net/wifi
     244                            .dwattr $C$DW$25, DW_AT_decl_line(0x317)
     245                            .dwattr $C$DW$25, DW_AT_decl_column(0x06)
     246                    $C$DW$26        .dwtag  DW_TAG_formal_parameter
     247                            .dwattr $C$DW$26, DW_AT_type(*$C$DW$T$8)
     248                    
     249                    $C$DW$27        .dwtag  DW_TAG_formal_parameter
     250                            .dwattr $C$DW$27, DW_AT_type(*$C$DW$T$679)
     251                    
     252                    $C$DW$28        .dwtag  DW_TAG_formal_parameter
     253                            .dwattr $C$DW$28, DW_AT_type(*$C$DW$T$679)
     254                    
     255                    $C$DW$29        .dwtag  DW_TAG_formal_parameter
     256                            .dwattr $C$DW$29, DW_AT_type(*$C$DW$T$679)
     257                    
     258                    $C$DW$30        .dwtag  DW_TAG_formal_parameter
     259                            .dwattr $C$DW$30, DW_AT_type(*$C$DW$T$711)
     260                    
     261                            .dwendtag $C$DW$25
     262                    
     263                    
     264                    $C$DW$31        .dwtag  DW_TAG_subprogram
     265                            .dwattr $C$DW$31, DW_AT_name("sl_SetSockOpt")
     266                            .dwattr $C$DW$31, DW_AT_TI_symbol_name("sl_SetSockOpt")
     267                            .dwattr $C$DW$31, DW_AT_type(*$C$DW$T$8)
     268                            .dwattr $C$DW$31, DW_AT_declaration
     269                            .dwattr $C$DW$31, DW_AT_external
     270                            .dwattr $C$DW$31, DW_AT_decl_file("/vagrant/Q1_eng_19.3.20/sdk_root/source/ti/drivers/net/wifi
     271                            .dwattr $C$DW$31, DW_AT_decl_line(0x4cd)
     272                            .dwattr $C$DW$31, DW_AT_decl_column(0x06)
     273                    $C$DW$32        .dwtag  DW_TAG_formal_parameter
     274                            .dwattr $C$DW$32, DW_AT_type(*$C$DW$T$8)
     275                    
TI ARM Assembler Unix v20.2.0 Thu Mar 19 13:13:13 2020

Copyright (c) 1996-2018 Texas Instruments Incorporated
slnetifwifi.asm                                                      PAGE    6

     276                    $C$DW$33        .dwtag  DW_TAG_formal_parameter
     277                            .dwattr $C$DW$33, DW_AT_type(*$C$DW$T$8)
     278                    
     279                    $C$DW$34        .dwtag  DW_TAG_formal_parameter
     280                            .dwattr $C$DW$34, DW_AT_type(*$C$DW$T$8)
     281                    
     282                    $C$DW$35        .dwtag  DW_TAG_formal_parameter
     283                            .dwattr $C$DW$35, DW_AT_type(*$C$DW$T$372)
     284                    
     285                    $C$DW$36        .dwtag  DW_TAG_formal_parameter
     286                            .dwattr $C$DW$36, DW_AT_type(*$C$DW$T$754)
     287                    
     288                            .dwendtag $C$DW$31
     289                    
     290                    
     291                    $C$DW$37        .dwtag  DW_TAG_subprogram
     292                            .dwattr $C$DW$37, DW_AT_name("sl_GetSockOpt")
     293                            .dwattr $C$DW$37, DW_AT_TI_symbol_name("sl_GetSockOpt")
     294                            .dwattr $C$DW$37, DW_AT_type(*$C$DW$T$8)
     295                            .dwattr $C$DW$37, DW_AT_declaration
     296                            .dwattr $C$DW$37, DW_AT_external
     297                            .dwattr $C$DW$37, DW_AT_decl_file("/vagrant/Q1_eng_19.3.20/sdk_root/source/ti/drivers/net/wifi
     298                            .dwattr $C$DW$37, DW_AT_decl_line(0x4f8)
     299                            .dwattr $C$DW$37, DW_AT_decl_column(0x06)
     300                    $C$DW$38        .dwtag  DW_TAG_formal_parameter
     301                            .dwattr $C$DW$38, DW_AT_type(*$C$DW$T$8)
     302                    
     303                    $C$DW$39        .dwtag  DW_TAG_formal_parameter
     304                            .dwattr $C$DW$39, DW_AT_type(*$C$DW$T$8)
     305                    
     306                    $C$DW$40        .dwtag  DW_TAG_formal_parameter
     307                            .dwattr $C$DW$40, DW_AT_type(*$C$DW$T$8)
     308                    
     309                    $C$DW$41        .dwtag  DW_TAG_formal_parameter
     310                            .dwattr $C$DW$41, DW_AT_type(*$C$DW$T$3)
     311                    
     312                    $C$DW$42        .dwtag  DW_TAG_formal_parameter
     313                            .dwattr $C$DW$42, DW_AT_type(*$C$DW$T$755)
     314                    
     315                            .dwendtag $C$DW$37
     316                    
     317                    
     318                    $C$DW$43        .dwtag  DW_TAG_subprogram
     319                            .dwattr $C$DW$43, DW_AT_name("sl_Recv")
     320                            .dwattr $C$DW$43, DW_AT_TI_symbol_name("sl_Recv")
     321                            .dwattr $C$DW$43, DW_AT_type(*$C$DW$T$8)
     322                            .dwattr $C$DW$43, DW_AT_declaration
     323                            .dwattr $C$DW$43, DW_AT_external
     324                            .dwattr $C$DW$43, DW_AT_decl_file("/vagrant/Q1_eng_19.3.20/sdk_root/source/ti/drivers/net/wifi
     325                            .dwattr $C$DW$43, DW_AT_decl_line(0x53e)
     326                            .dwattr $C$DW$43, DW_AT_decl_column(0x06)
     327                    $C$DW$44        .dwtag  DW_TAG_formal_parameter
     328                            .dwattr $C$DW$44, DW_AT_type(*$C$DW$T$8)
     329                    
     330                    $C$DW$45        .dwtag  DW_TAG_formal_parameter
TI ARM Assembler Unix v20.2.0 Thu Mar 19 13:13:13 2020

Copyright (c) 1996-2018 Texas Instruments Incorporated
slnetifwifi.asm                                                      PAGE    7

     331                            .dwattr $C$DW$45, DW_AT_type(*$C$DW$T$3)
     332                    
     333                    $C$DW$46        .dwtag  DW_TAG_formal_parameter
     334                            .dwattr $C$DW$46, DW_AT_type(*$C$DW$T$8)
     335                    
     336                    $C$DW$47        .dwtag  DW_TAG_formal_parameter
     337                            .dwattr $C$DW$47, DW_AT_type(*$C$DW$T$8)
     338                    
     339                            .dwendtag $C$DW$43
     340                    
     341                    
     342                    $C$DW$48        .dwtag  DW_TAG_subprogram
     343                            .dwattr $C$DW$48, DW_AT_name("sl_RecvFrom")
     344                            .dwattr $C$DW$48, DW_AT_TI_symbol_name("sl_RecvFrom")
     345                            .dwattr $C$DW$48, DW_AT_type(*$C$DW$T$8)
     346                            .dwattr $C$DW$48, DW_AT_declaration
     347                            .dwattr $C$DW$48, DW_AT_external
     348                            .dwattr $C$DW$48, DW_AT_decl_file("/vagrant/Q1_eng_19.3.20/sdk_root/source/ti/drivers/net/wifi
     349                            .dwattr $C$DW$48, DW_AT_decl_line(0x57a)
     350                            .dwattr $C$DW$48, DW_AT_decl_column(0x06)
     351                    $C$DW$49        .dwtag  DW_TAG_formal_parameter
     352                            .dwattr $C$DW$49, DW_AT_type(*$C$DW$T$8)
     353                    
     354                    $C$DW$50        .dwtag  DW_TAG_formal_parameter
     355                            .dwattr $C$DW$50, DW_AT_type(*$C$DW$T$3)
     356                    
     357                    $C$DW$51        .dwtag  DW_TAG_formal_parameter
     358                            .dwattr $C$DW$51, DW_AT_type(*$C$DW$T$8)
     359                    
     360                    $C$DW$52        .dwtag  DW_TAG_formal_parameter
     361                            .dwattr $C$DW$52, DW_AT_type(*$C$DW$T$8)
     362                    
     363                    $C$DW$53        .dwtag  DW_TAG_formal_parameter
     364                            .dwattr $C$DW$53, DW_AT_type(*$C$DW$T$708)
     365                    
     366                    $C$DW$54        .dwtag  DW_TAG_formal_parameter
     367                            .dwattr $C$DW$54, DW_AT_type(*$C$DW$T$755)
     368                    
     369                            .dwendtag $C$DW$48
     370                    
     371                    
     372                    $C$DW$55        .dwtag  DW_TAG_subprogram
     373                            .dwattr $C$DW$55, DW_AT_name("sl_Send")
     374                            .dwattr $C$DW$55, DW_AT_TI_symbol_name("sl_Send")
     375                            .dwattr $C$DW$55, DW_AT_type(*$C$DW$T$8)
     376                            .dwattr $C$DW$55, DW_AT_declaration
     377                            .dwattr $C$DW$55, DW_AT_external
     378                            .dwattr $C$DW$55, DW_AT_decl_file("/vagrant/Q1_eng_19.3.20/sdk_root/source/ti/drivers/net/wifi
     379                            .dwattr $C$DW$55, DW_AT_decl_line(0x5ac)
     380                            .dwattr $C$DW$55, DW_AT_decl_column(0x06)
     381                    $C$DW$56        .dwtag  DW_TAG_formal_parameter
     382                            .dwattr $C$DW$56, DW_AT_type(*$C$DW$T$8)
     383                    
     384                    $C$DW$57        .dwtag  DW_TAG_formal_parameter
     385                            .dwattr $C$DW$57, DW_AT_type(*$C$DW$T$372)
TI ARM Assembler Unix v20.2.0 Thu Mar 19 13:13:13 2020

Copyright (c) 1996-2018 Texas Instruments Incorporated
slnetifwifi.asm                                                      PAGE    8

     386                    
     387                    $C$DW$58        .dwtag  DW_TAG_formal_parameter
     388                            .dwattr $C$DW$58, DW_AT_type(*$C$DW$T$8)
     389                    
     390                    $C$DW$59        .dwtag  DW_TAG_formal_parameter
     391                            .dwattr $C$DW$59, DW_AT_type(*$C$DW$T$8)
     392                    
     393                            .dwendtag $C$DW$55
     394                    
     395                    
     396                    $C$DW$60        .dwtag  DW_TAG_subprogram
     397                            .dwattr $C$DW$60, DW_AT_name("sl_SendTo")
     398                            .dwattr $C$DW$60, DW_AT_TI_symbol_name("sl_SendTo")
     399                            .dwattr $C$DW$60, DW_AT_type(*$C$DW$T$8)
     400                            .dwattr $C$DW$60, DW_AT_declaration
     401                            .dwattr $C$DW$60, DW_AT_external
     402                            .dwattr $C$DW$60, DW_AT_decl_file("/vagrant/Q1_eng_19.3.20/sdk_root/source/ti/drivers/net/wifi
     403                            .dwattr $C$DW$60, DW_AT_decl_line(0x5e1)
     404                            .dwattr $C$DW$60, DW_AT_decl_column(0x06)
     405                    $C$DW$61        .dwtag  DW_TAG_formal_parameter
     406                            .dwattr $C$DW$61, DW_AT_type(*$C$DW$T$8)
     407                    
     408                    $C$DW$62        .dwtag  DW_TAG_formal_parameter
     409                            .dwattr $C$DW$62, DW_AT_type(*$C$DW$T$372)
     410                    
     411                    $C$DW$63        .dwtag  DW_TAG_formal_parameter
     412                            .dwattr $C$DW$63, DW_AT_type(*$C$DW$T$8)
     413                    
     414                    $C$DW$64        .dwtag  DW_TAG_formal_parameter
     415                            .dwattr $C$DW$64, DW_AT_type(*$C$DW$T$8)
     416                    
     417                    $C$DW$65        .dwtag  DW_TAG_formal_parameter
     418                            .dwattr $C$DW$65, DW_AT_type(*$C$DW$T$707)
     419                    
     420                    $C$DW$66        .dwtag  DW_TAG_formal_parameter
     421                            .dwattr $C$DW$66, DW_AT_type(*$C$DW$T$754)
     422                    
     423                            .dwendtag $C$DW$60
     424                    
     425                    
     426                    $C$DW$67        .dwtag  DW_TAG_subprogram
     427                            .dwattr $C$DW$67, DW_AT_name("sl_StartTLS")
     428                            .dwattr $C$DW$67, DW_AT_TI_symbol_name("sl_StartTLS")
     429                            .dwattr $C$DW$67, DW_AT_type(*$C$DW$T$8)
     430                            .dwattr $C$DW$67, DW_AT_declaration
     431                            .dwattr $C$DW$67, DW_AT_external
     432                            .dwattr $C$DW$67, DW_AT_decl_file("/vagrant/Q1_eng_19.3.20/sdk_root/source/ti/drivers/net/wifi
     433                            .dwattr $C$DW$67, DW_AT_decl_line(0x5f4)
     434                            .dwattr $C$DW$67, DW_AT_decl_column(0x06)
     435                    $C$DW$68        .dwtag  DW_TAG_formal_parameter
     436                            .dwattr $C$DW$68, DW_AT_type(*$C$DW$T$8)
     437                    
     438                            .dwendtag $C$DW$67
     439                    
     440                    
TI ARM Assembler Unix v20.2.0 Thu Mar 19 13:13:13 2020

Copyright (c) 1996-2018 Texas Instruments Incorporated
slnetifwifi.asm                                                      PAGE    9

     441                    $C$DW$69        .dwtag  DW_TAG_subprogram
     442                            .dwattr $C$DW$69, DW_AT_name("sl_NetAppDnsGetHostByName")
     443                            .dwattr $C$DW$69, DW_AT_TI_symbol_name("sl_NetAppDnsGetHostByName")
     444                            .dwattr $C$DW$69, DW_AT_type(*$C$DW$T$8)
     445                            .dwattr $C$DW$69, DW_AT_declaration
     446                            .dwattr $C$DW$69, DW_AT_external
     447                            .dwattr $C$DW$69, DW_AT_decl_file("/vagrant/Q1_eng_19.3.20/sdk_root/source/ti/drivers/net/wifi
     448                            .dwattr $C$DW$69, DW_AT_decl_line(0x2e1)
     449                            .dwattr $C$DW$69, DW_AT_decl_column(0x06)
     450                    $C$DW$70        .dwtag  DW_TAG_formal_parameter
     451                            .dwattr $C$DW$70, DW_AT_type(*$C$DW$T$154)
     452                    
     453                    $C$DW$71        .dwtag  DW_TAG_formal_parameter
     454                            .dwattr $C$DW$71, DW_AT_type(*$C$DW$T$240)
     455                    
     456                    $C$DW$72        .dwtag  DW_TAG_formal_parameter
     457                            .dwattr $C$DW$72, DW_AT_type(*$C$DW$T$776)
     458                    
     459                    $C$DW$73        .dwtag  DW_TAG_formal_parameter
     460                            .dwattr $C$DW$73, DW_AT_type(*$C$DW$T$239)
     461                    
     462                            .dwendtag $C$DW$69
     463                    
     464                    
     465                    $C$DW$74        .dwtag  DW_TAG_subprogram
     466                            .dwattr $C$DW$74, DW_AT_name("sl_WlanGet")
     467                            .dwattr $C$DW$74, DW_AT_TI_symbol_name("sl_WlanGet")
     468                            .dwattr $C$DW$74, DW_AT_type(*$C$DW$T$8)
     469                            .dwattr $C$DW$74, DW_AT_declaration
     470                            .dwattr $C$DW$74, DW_AT_external
     471                            .dwattr $C$DW$74, DW_AT_decl_file("/vagrant/Q1_eng_19.3.20/sdk_root/source/ti/drivers/net/wifi
     472                            .dwattr $C$DW$74, DW_AT_decl_line(0xa92)
     473                            .dwattr $C$DW$74, DW_AT_decl_column(0x06)
     474                    $C$DW$75        .dwtag  DW_TAG_formal_parameter
     475                            .dwattr $C$DW$75, DW_AT_type(*$C$DW$T$240)
     476                    
     477                    $C$DW$76        .dwtag  DW_TAG_formal_parameter
     478                            .dwattr $C$DW$76, DW_AT_type(*$C$DW$T$227)
     479                    
     480                    $C$DW$77        .dwtag  DW_TAG_formal_parameter
     481                            .dwattr $C$DW$77, DW_AT_type(*$C$DW$T$227)
     482                    
     483                    $C$DW$78        .dwtag  DW_TAG_formal_parameter
     484                            .dwattr $C$DW$78, DW_AT_type(*$C$DW$T$106)
     485                    
     486                            .dwendtag $C$DW$74
     487                    
     488                    
     489                    $C$DW$79        .dwtag  DW_TAG_subprogram
     490                            .dwattr $C$DW$79, DW_AT_name("sl_NetCfgGet")
     491                            .dwattr $C$DW$79, DW_AT_TI_symbol_name("sl_NetCfgGet")
     492                            .dwattr $C$DW$79, DW_AT_type(*$C$DW$T$8)
     493                            .dwattr $C$DW$79, DW_AT_declaration
     494                            .dwattr $C$DW$79, DW_AT_external
     495                            .dwattr $C$DW$79, DW_AT_decl_file("/vagrant/Q1_eng_19.3.20/sdk_root/source/ti/drivers/net/wifi
TI ARM Assembler Unix v20.2.0 Thu Mar 19 13:13:13 2020

Copyright (c) 1996-2018 Texas Instruments Incorporated
slnetifwifi.asm                                                      PAGE   10

     496                            .dwattr $C$DW$79, DW_AT_decl_line(0x2b2)
     497                            .dwattr $C$DW$79, DW_AT_decl_column(0x06)
     498                    $C$DW$80        .dwtag  DW_TAG_formal_parameter
     499                            .dwattr $C$DW$80, DW_AT_type(*$C$DW$T$240)
     500                    
     501                    $C$DW$81        .dwtag  DW_TAG_formal_parameter
     502                            .dwattr $C$DW$81, DW_AT_type(*$C$DW$T$227)
     503                    
     504                    $C$DW$82        .dwtag  DW_TAG_formal_parameter
     505                            .dwattr $C$DW$82, DW_AT_type(*$C$DW$T$227)
     506                    
     507                    $C$DW$83        .dwtag  DW_TAG_formal_parameter
     508                            .dwattr $C$DW$83, DW_AT_type(*$C$DW$T$106)
     509                    
     510                            .dwendtag $C$DW$79
     511                    
     512                    
     513                    $C$DW$84        .dwtag  DW_TAG_subprogram
     514                            .dwattr $C$DW$84, DW_AT_name("memset")
     515                            .dwattr $C$DW$84, DW_AT_TI_symbol_name("memset")
     516                            .dwattr $C$DW$84, DW_AT_type(*$C$DW$T$3)
     517                            .dwattr $C$DW$84, DW_AT_declaration
     518                            .dwattr $C$DW$84, DW_AT_external
     519                            .dwattr $C$DW$84, DW_AT_decl_file("/opt/ti/ccs-latest/ccs/tools/compiler/ti-cgt-arm_20.2.0.LTS
     520                            .dwattr $C$DW$84, DW_AT_decl_line(0x82)
     521                            .dwattr $C$DW$84, DW_AT_decl_column(0x16)
     522                    $C$DW$85        .dwtag  DW_TAG_formal_parameter
     523                            .dwattr $C$DW$85, DW_AT_type(*$C$DW$T$3)
     524                    
     525                    $C$DW$86        .dwtag  DW_TAG_formal_parameter
     526                            .dwattr $C$DW$86, DW_AT_type(*$C$DW$T$10)
     527                    
     528                    $C$DW$87        .dwtag  DW_TAG_formal_parameter
     529                            .dwattr $C$DW$87, DW_AT_type(*$C$DW$T$444)
     530                    
     531                            .dwendtag $C$DW$84
     532                    
     533                    
     534                    $C$DW$88        .dwtag  DW_TAG_subprogram
     535                            .dwattr $C$DW$88, DW_AT_name("strlen")
     536                            .dwattr $C$DW$88, DW_AT_TI_symbol_name("strlen")
     537                            .dwattr $C$DW$88, DW_AT_type(*$C$DW$T$444)
     538                            .dwattr $C$DW$88, DW_AT_declaration
     539                            .dwattr $C$DW$88, DW_AT_external
     540                            .dwattr $C$DW$88, DW_AT_decl_file("/opt/ti/ccs-latest/ccs/tools/compiler/ti-cgt-arm_20.2.0.LTS
     541                            .dwattr $C$DW$88, DW_AT_decl_line(0x56)
     542                            .dwattr $C$DW$88, DW_AT_decl_column(0x14)
     543                    $C$DW$89        .dwtag  DW_TAG_formal_parameter
     544                            .dwattr $C$DW$89, DW_AT_type(*$C$DW$T$400)
     545                    
     546                            .dwendtag $C$DW$88
     547                    
     548                    
     549                    $C$DW$90        .dwtag  DW_TAG_subprogram
     550                            .dwattr $C$DW$90, DW_AT_name("sl_FsOpen")
TI ARM Assembler Unix v20.2.0 Thu Mar 19 13:13:13 2020

Copyright (c) 1996-2018 Texas Instruments Incorporated
slnetifwifi.asm                                                      PAGE   11

     551                            .dwattr $C$DW$90, DW_AT_TI_symbol_name("sl_FsOpen")
     552                            .dwattr $C$DW$90, DW_AT_type(*$C$DW$T$12)
     553                            .dwattr $C$DW$90, DW_AT_declaration
     554                            .dwattr $C$DW$90, DW_AT_external
     555                            .dwattr $C$DW$90, DW_AT_decl_file("/vagrant/Q1_eng_19.3.20/sdk_root/source/ti/drivers/net/wifi
     556                            .dwattr $C$DW$90, DW_AT_decl_line(0x167)
     557                            .dwattr $C$DW$90, DW_AT_decl_column(0x06)
     558                    $C$DW$91        .dwtag  DW_TAG_formal_parameter
     559                            .dwattr $C$DW$91, DW_AT_type(*$C$DW$T$737)
     560                    
     561                    $C$DW$92        .dwtag  DW_TAG_formal_parameter
     562                            .dwattr $C$DW$92, DW_AT_type(*$C$DW$T$241)
     563                    
     564                    $C$DW$93        .dwtag  DW_TAG_formal_parameter
     565                            .dwattr $C$DW$93, DW_AT_type(*$C$DW$T$776)
     566                    
     567                            .dwendtag $C$DW$90
     568                    
     569                    
     570                    $C$DW$94        .dwtag  DW_TAG_subprogram
     571                            .dwattr $C$DW$94, DW_AT_name("sl_FsWrite")
     572                            .dwattr $C$DW$94, DW_AT_TI_symbol_name("sl_FsWrite")
     573                            .dwattr $C$DW$94, DW_AT_type(*$C$DW$T$12)
     574                            .dwattr $C$DW$94, DW_AT_declaration
     575                            .dwattr $C$DW$94, DW_AT_external
     576                            .dwattr $C$DW$94, DW_AT_decl_file("/vagrant/Q1_eng_19.3.20/sdk_root/source/ti/drivers/net/wifi
     577                            .dwattr $C$DW$94, DW_AT_decl_line(0x1ba)
     578                            .dwattr $C$DW$94, DW_AT_decl_column(0x06)
     579                    $C$DW$95        .dwtag  DW_TAG_formal_parameter
     580                            .dwattr $C$DW$95, DW_AT_type(*$C$DW$T$747)
     581                    
     582                    $C$DW$96        .dwtag  DW_TAG_formal_parameter
     583                            .dwattr $C$DW$96, DW_AT_type(*$C$DW$T$13)
     584                    
     585                    $C$DW$97        .dwtag  DW_TAG_formal_parameter
     586                            .dwattr $C$DW$97, DW_AT_type(*$C$DW$T$106)
     587                    
     588                    $C$DW$98        .dwtag  DW_TAG_formal_parameter
     589                            .dwattr $C$DW$98, DW_AT_type(*$C$DW$T$13)
     590                    
     591                            .dwendtag $C$DW$94
     592                    
     593                    
     594                    $C$DW$99        .dwtag  DW_TAG_subprogram
     595                            .dwattr $C$DW$99, DW_AT_name("sl_FsClose")
     596                            .dwattr $C$DW$99, DW_AT_TI_symbol_name("sl_FsClose")
     597                            .dwattr $C$DW$99, DW_AT_type(*$C$DW$T$8)
     598                            .dwattr $C$DW$99, DW_AT_declaration
     599                            .dwattr $C$DW$99, DW_AT_external
     600                            .dwattr $C$DW$99, DW_AT_decl_file("/vagrant/Q1_eng_19.3.20/sdk_root/source/ti/drivers/net/wifi
     601                            .dwattr $C$DW$99, DW_AT_decl_line(0x18a)
     602                            .dwattr $C$DW$99, DW_AT_decl_column(0x06)
     603                    $C$DW$100       .dwtag  DW_TAG_formal_parameter
     604                            .dwattr $C$DW$100, DW_AT_type(*$C$DW$T$747)
     605                    
TI ARM Assembler Unix v20.2.0 Thu Mar 19 13:13:13 2020

Copyright (c) 1996-2018 Texas Instruments Incorporated
slnetifwifi.asm                                                      PAGE   12

     606                    $C$DW$101       .dwtag  DW_TAG_formal_parameter
     607                            .dwattr $C$DW$101, DW_AT_type(*$C$DW$T$737)
     608                    
     609                    $C$DW$102       .dwtag  DW_TAG_formal_parameter
     610                            .dwattr $C$DW$102, DW_AT_type(*$C$DW$T$737)
     611                    
     612                    $C$DW$103       .dwtag  DW_TAG_formal_parameter
     613                            .dwattr $C$DW$103, DW_AT_type(*$C$DW$T$241)
     614                    
     615                            .dwendtag $C$DW$99
     616                    
     617                    ;       /opt/ti/ccs-latest/ccs/tools/compiler/ti-cgt-arm_20.2.0.LTS/bin/armacpia -@/tmp/TI8fFZnN6u3 
     618 00000000                   .sect   ".text:SlNetIfWifi_socket"
     619                            .clink
     620                            .thumbfunc SlNetIfWifi_socket
     621 00000000                   .thumb
     622                            .global SlNetIfWifi_socket
     623                    
     624                    $C$DW$104       .dwtag  DW_TAG_subprogram
     625                            .dwattr $C$DW$104, DW_AT_name("SlNetIfWifi_socket")
     626                            .dwattr $C$DW$104, DW_AT_low_pc(SlNetIfWifi_socket)
     627                            .dwattr $C$DW$104, DW_AT_high_pc(0x00)
     628                            .dwattr $C$DW$104, DW_AT_TI_symbol_name("SlNetIfWifi_socket")
     629                            .dwattr $C$DW$104, DW_AT_external
     630                            .dwattr $C$DW$104, DW_AT_type(*$C$DW$T$333)
     631                            .dwattr $C$DW$104, DW_AT_TI_begin_file("/vagrant/Q1_eng_19.3.20/sdk_root/source/ti/drivers/net
     632                            .dwattr $C$DW$104, DW_AT_TI_begin_line(0x7e)
     633                            .dwattr $C$DW$104, DW_AT_TI_begin_column(0x09)
     634                            .dwattr $C$DW$104, DW_AT_decl_file("/vagrant/Q1_eng_19.3.20/sdk_root/source/ti/drivers/net/wif
     635                            .dwattr $C$DW$104, DW_AT_decl_line(0x7e)
     636                            .dwattr $C$DW$104, DW_AT_decl_column(0x09)
     637                            .dwattr $C$DW$104, DW_AT_TI_max_frame_size(0x10)
     638                            .dwpsn  file "/vagrant/Q1_eng_19.3.20/sdk_root/source/ti/drivers/net/wifi/slnetif/slnetifwifi.
     639                    
     640                            .dwfde $C$DW$CIE, SlNetIfWifi_socket
     641                    $C$DW$105       .dwtag  DW_TAG_formal_parameter
     642                            .dwattr $C$DW$105, DW_AT_name("ifContext")
     643                            .dwattr $C$DW$105, DW_AT_TI_symbol_name("ifContext")
     644                            .dwattr $C$DW$105, DW_AT_type(*$C$DW$T$3)
     645                            .dwattr $C$DW$105, DW_AT_location[DW_OP_reg0]
     646                    
     647                    $C$DW$106       .dwtag  DW_TAG_formal_parameter
     648                            .dwattr $C$DW$106, DW_AT_name("Domain")
     649                            .dwattr $C$DW$106, DW_AT_TI_symbol_name("Domain")
     650                            .dwattr $C$DW$106, DW_AT_type(*$C$DW$T$10)
     651                            .dwattr $C$DW$106, DW_AT_location[DW_OP_reg1]
     652                    
     653                    $C$DW$107       .dwtag  DW_TAG_formal_parameter
     654                            .dwattr $C$DW$107, DW_AT_name("Type")
     655                            .dwattr $C$DW$107, DW_AT_TI_symbol_name("Type")
     656                            .dwattr $C$DW$107, DW_AT_type(*$C$DW$T$10)
     657                            .dwattr $C$DW$107, DW_AT_location[DW_OP_reg2]
     658                    
     659                    $C$DW$108       .dwtag  DW_TAG_formal_parameter
     660                            .dwattr $C$DW$108, DW_AT_name("Protocol")
TI ARM Assembler Unix v20.2.0 Thu Mar 19 13:13:13 2020

Copyright (c) 1996-2018 Texas Instruments Incorporated
slnetifwifi.asm                                                      PAGE   13

     661                            .dwattr $C$DW$108, DW_AT_TI_symbol_name("Protocol")
     662                            .dwattr $C$DW$108, DW_AT_type(*$C$DW$T$10)
     663                            .dwattr $C$DW$108, DW_AT_location[DW_OP_reg3]
     664                    
     665                    $C$DW$109       .dwtag  DW_TAG_formal_parameter
     666                            .dwattr $C$DW$109, DW_AT_name("sdContext")
     667                            .dwattr $C$DW$109, DW_AT_TI_symbol_name("sdContext")
     668                            .dwattr $C$DW$109, DW_AT_type(*$C$DW$T$334)
     669                            .dwattr $C$DW$109, DW_AT_location[DW_OP_breg13 16]
     670                    
     671                    ;----------------------------------------------------------------------
     672                    ; 126 | int16_t SlNetIfWifi_socket(void *ifContext, int16_t Domain, int16_t Typ
     673                    ;     | e, int16_t Protocol, void **sdContext)                                 
     674                    ;----------------------------------------------------------------------
     675                    
     676                    ;*****************************************************************************
     677                    ;* FUNCTION NAME: SlNetIfWifi_socket                                         *
     678                    ;*                                                                           *
     679                    ;*   Regs Modified     : A1,A2,A3,A4,V9,SP,LR,SR                             *
     680                    ;*   Regs Used         : A1,A2,A3,A4,V9,SP,LR,SR                             *
     681                    ;*   Local Frame Size  : 0 Args + 12 Auto + 4 Save = 16 byte                 *
     682                    ;*****************************************************************************
     683 00000000           SlNetIfWifi_socket:
     684                    ;* --------------------------------------------------------------------------*
     685                            .dwcfi  cfa_offset, 0
     686 00000000 B50E              PUSH      {A2, A3, A4, LR}      ; [DPU_V7M3_PIPE]  ; [ORIG 16-BIT INS]
     687                            .dwcfi  cfa_offset, 16
     688                            .dwcfi  save_reg_to_mem, 14, -4
     689                            .dwcfi  save_reg_to_mem, 3, -8
     690                            .dwcfi  save_reg_to_mem, 2, -12
     691                            .dwcfi  save_reg_to_mem, 1, -16
     692                    $C$DW$110       .dwtag  DW_TAG_variable
     693                            .dwattr $C$DW$110, DW_AT_name("ifContext")
     694                            .dwattr $C$DW$110, DW_AT_TI_symbol_name("ifContext")
     695                            .dwattr $C$DW$110, DW_AT_type(*$C$DW$T$3)
     696                            .dwattr $C$DW$110, DW_AT_location[DW_OP_breg13 0]
     697                    
     698                    $C$DW$111       .dwtag  DW_TAG_variable
     699                            .dwattr $C$DW$111, DW_AT_name("Domain")
     700                            .dwattr $C$DW$111, DW_AT_TI_symbol_name("Domain")
     701                            .dwattr $C$DW$111, DW_AT_type(*$C$DW$T$333)
     702                            .dwattr $C$DW$111, DW_AT_location[DW_OP_breg13 4]
     703                    
     704                    $C$DW$112       .dwtag  DW_TAG_variable
     705                            .dwattr $C$DW$112, DW_AT_name("Type")
     706                            .dwattr $C$DW$112, DW_AT_TI_symbol_name("Type")
     707                            .dwattr $C$DW$112, DW_AT_type(*$C$DW$T$333)
     708                            .dwattr $C$DW$112, DW_AT_location[DW_OP_breg13 6]
     709                    
     710                    $C$DW$113       .dwtag  DW_TAG_variable
     711                            .dwattr $C$DW$113, DW_AT_name("Protocol")
     712                            .dwattr $C$DW$113, DW_AT_TI_symbol_name("Protocol")
     713                            .dwattr $C$DW$113, DW_AT_type(*$C$DW$T$333)
     714                            .dwattr $C$DW$113, DW_AT_location[DW_OP_breg13 8]
     715                    
TI ARM Assembler Unix v20.2.0 Thu Mar 19 13:13:13 2020

Copyright (c) 1996-2018 Texas Instruments Incorporated
slnetifwifi.asm                                                      PAGE   14

     716                    $C$DW$114       .dwtag  DW_TAG_variable
     717                            .dwattr $C$DW$114, DW_AT_name("mappedSocketType")
     718                            .dwattr $C$DW$114, DW_AT_TI_symbol_name("mappedSocketType")
     719                            .dwattr $C$DW$114, DW_AT_type(*$C$DW$T$333)
     720                            .dwattr $C$DW$114, DW_AT_location[DW_OP_breg13 10]
     721                    
     722 00000002 3008F8AD          STRH      A4, [SP, #8]          ; [DPU_V7M3_PIPE] |127|  ; [KEEP 32-BIT INS]
     723 00000006 2006F8AD          STRH      A3, [SP, #6]          ; [DPU_V7M3_PIPE] |127|  ; [KEEP 32-BIT INS]
     724 0000000a 1004F8AD          STRH      A2, [SP, #4]          ; [DPU_V7M3_PIPE] |127|  ; [KEEP 32-BIT INS]
     725 0000000e 9000              STR       A1, [SP, #0]          ; [DPU_V7M3_PIPE] |127|  ; [ORIG 16-BIT INS]
     726                            .dwpsn  file "/vagrant/Q1_eng_19.3.20/sdk_root/source/ti/drivers/net/wifi/slnetif/slnetifwifi.
     727                    ;----------------------------------------------------------------------
     728                    ; 129 | int16_t mappedSocketType = socketType[Type - 1];                       
     729                    ;----------------------------------------------------------------------
     730 00000010 4908              LDR       A2, $C$CON1           ; [DPU_V7M3_PIPE] |129|  ; [ORIG 16-BIT INS]
     731 00000012 0006F9BD          LDRSH     A1, [SP, #6]          ; [DPU_V7M3_PIPE] |129|  ; [KEEP 32-BIT INS]
     732 00000016 0040              LSLS      A1, A1, #1            ; [DPU_V7M3_PIPE] |129|  ; [ORIG 16-BIT INS]
     733 00000018 1E80              SUBS      A1, A1, #2            ; [DPU_V7M3_PIPE] |129|  ; [ORIG 16-BIT INS]
     734 0000001a 5A08              LDRH      A1, [A2, +A1]         ; [DPU_V7M3_PIPE] |129|  ; [ORIG 16-BIT INS]
     735 0000001c 000AF8AD          STRH      A1, [SP, #10]         ; [DPU_V7M3_PIPE] |129|  ; [KEEP 32-BIT INS]
     736                            .dwpsn  file "/vagrant/Q1_eng_19.3.20/sdk_root/source/ti/drivers/net/wifi/slnetif/slnetifwifi.
     737                    ;----------------------------------------------------------------------
     738                    ; 130 | return (sl_Socket(Domain, mappedSocketType, Protocol));                
     739                    ;----------------------------------------------------------------------
     740 00000020 2008F9BD          LDRSH     A3, [SP, #8]          ; [DPU_V7M3_PIPE] |130|  ; [KEEP 32-BIT INS]
     741 00000024 0004F9BD          LDRSH     A1, [SP, #4]          ; [DPU_V7M3_PIPE] |130|  ; [KEEP 32-BIT INS]
     742 00000028 100AF9BD          LDRSH     A2, [SP, #10]         ; [DPU_V7M3_PIPE] |130|  ; [KEEP 32-BIT INS]
     743                    $C$DW$115       .dwtag  DW_TAG_TI_branch
     744                            .dwattr $C$DW$115, DW_AT_low_pc(0x00)
     745                            .dwattr $C$DW$115, DW_AT_name("sl_Socket")
     746                            .dwattr $C$DW$115, DW_AT_TI_call
     747                    
     748 0000002c FFFEF7FF!         BL        sl_Socket             ; [DPU_V7M3_PIPE] |130|  ; [KEEP 32-BIT INS]
     749                            ; CALL OCCURS {sl_Socket }       ; [] |130| 
     750                            .dwpsn  file "/vagrant/Q1_eng_19.3.20/sdk_root/source/ti/drivers/net/wifi/slnetif/slnetifwifi.
     751                    $C$DW$116       .dwtag  DW_TAG_TI_branch
     752                            .dwattr $C$DW$116, DW_AT_low_pc(0x00)
     753                            .dwattr $C$DW$116, DW_AT_TI_return
     754                    
     755 00000030 BD0E              POP       {A2, A3, A4, PC}      ; [DPU_V7M3_PIPE]  ; [ORIG 16-BIT INS]
     756                            .dwcfi  cfa_offset, 0
     757                            .dwcfi  restore_reg, 3
     758                            .dwcfi  restore_reg, 2
     759                            .dwcfi  restore_reg, 1
     760                            ; BRANCH OCCURS                  ; [] 
     761                            .dwattr $C$DW$104, DW_AT_TI_end_file("/vagrant/Q1_eng_19.3.20/sdk_root/source/ti/drivers/net/w
     762                            .dwattr $C$DW$104, DW_AT_TI_end_line(0x83)
     763                            .dwattr $C$DW$104, DW_AT_TI_end_column(0x01)
     764                            .dwendentry
     765                            .dwendtag $C$DW$104
     766                    
     767 00000000                   .sect   ".text:SlNetIfWifi_close"
     768                            .clink
     769                            .thumbfunc SlNetIfWifi_close
     770 00000000                   .thumb
TI ARM Assembler Unix v20.2.0 Thu Mar 19 13:13:13 2020

Copyright (c) 1996-2018 Texas Instruments Incorporated
slnetifwifi.asm                                                      PAGE   15

     771                            .global SlNetIfWifi_close
     772                    
     773                    $C$DW$117       .dwtag  DW_TAG_subprogram
     774                            .dwattr $C$DW$117, DW_AT_name("SlNetIfWifi_close")
     775                            .dwattr $C$DW$117, DW_AT_low_pc(SlNetIfWifi_close)
     776                            .dwattr $C$DW$117, DW_AT_high_pc(0x00)
     777                            .dwattr $C$DW$117, DW_AT_TI_symbol_name("SlNetIfWifi_close")
     778                            .dwattr $C$DW$117, DW_AT_external
     779                            .dwattr $C$DW$117, DW_AT_type(*$C$DW$T$338)
     780                            .dwattr $C$DW$117, DW_AT_TI_begin_file("/vagrant/Q1_eng_19.3.20/sdk_root/source/ti/drivers/net
     781                            .dwattr $C$DW$117, DW_AT_TI_begin_line(0x8b)
     782                            .dwattr $C$DW$117, DW_AT_TI_begin_column(0x09)
     783                            .dwattr $C$DW$117, DW_AT_decl_file("/vagrant/Q1_eng_19.3.20/sdk_root/source/ti/drivers/net/wif
     784                            .dwattr $C$DW$117, DW_AT_decl_line(0x8b)
     785                            .dwattr $C$DW$117, DW_AT_decl_column(0x09)
     786                            .dwattr $C$DW$117, DW_AT_TI_max_frame_size(0x10)
     787                            .dwpsn  file "/vagrant/Q1_eng_19.3.20/sdk_root/source/ti/drivers/net/wifi/slnetif/slnetifwifi.
     788                    
     789                            .dwfde $C$DW$CIE, SlNetIfWifi_close
     790                    $C$DW$118       .dwtag  DW_TAG_formal_parameter
     791                            .dwattr $C$DW$118, DW_AT_name("sd")
     792                            .dwattr $C$DW$118, DW_AT_TI_symbol_name("sd")
     793                            .dwattr $C$DW$118, DW_AT_type(*$C$DW$T$10)
     794                            .dwattr $C$DW$118, DW_AT_location[DW_OP_reg0]
     795                    
     796                    $C$DW$119       .dwtag  DW_TAG_formal_parameter
     797                            .dwattr $C$DW$119, DW_AT_name("sdContext")
     798                            .dwattr $C$DW$119, DW_AT_TI_symbol_name("sdContext")
     799                            .dwattr $C$DW$119, DW_AT_type(*$C$DW$T$3)
     800                            .dwattr $C$DW$119, DW_AT_location[DW_OP_reg1]
     801                    
     802                    ;----------------------------------------------------------------------
     803                    ; 139 | int32_t SlNetIfWifi_close(int16_t sd, void *sdContext)                 
     804                    ;----------------------------------------------------------------------
     805                    
     806                    ;*****************************************************************************
     807                    ;* FUNCTION NAME: SlNetIfWifi_close                                          *
     808                    ;*                                                                           *
     809                    ;*   Regs Modified     : A1,A2,A3,A4,V9,SP,LR,SR                             *
     810                    ;*   Regs Used         : A1,A2,A3,A4,V9,SP,LR,SR                             *
     811                    ;*   Local Frame Size  : 0 Args + 8 Auto + 4 Save = 12 byte                  *
     812                    ;*****************************************************************************
     813 00000000           SlNetIfWifi_close:
     814                    ;* --------------------------------------------------------------------------*
     815                            .dwcfi  cfa_offset, 0
     816 00000000 B50E              PUSH      {A2, A3, A4, LR}      ; [DPU_V7M3_PIPE]  ; [ORIG 16-BIT INS]
     817                            .dwcfi  cfa_offset, 16
     818                            .dwcfi  save_reg_to_mem, 14, -4
     819                            .dwcfi  save_reg_to_mem, 3, -8
     820                            .dwcfi  save_reg_to_mem, 2, -12
     821                            .dwcfi  save_reg_to_mem, 1, -16
     822                    $C$DW$120       .dwtag  DW_TAG_variable
     823                            .dwattr $C$DW$120, DW_AT_name("sdContext")
     824                            .dwattr $C$DW$120, DW_AT_TI_symbol_name("sdContext")
     825                            .dwattr $C$DW$120, DW_AT_type(*$C$DW$T$3)
TI ARM Assembler Unix v20.2.0 Thu Mar 19 13:13:13 2020

Copyright (c) 1996-2018 Texas Instruments Incorporated
slnetifwifi.asm                                                      PAGE   16

     826                            .dwattr $C$DW$120, DW_AT_location[DW_OP_breg13 0]
     827                    
     828                    $C$DW$121       .dwtag  DW_TAG_variable
     829                            .dwattr $C$DW$121, DW_AT_name("sd")
     830                            .dwattr $C$DW$121, DW_AT_TI_symbol_name("sd")
     831                            .dwattr $C$DW$121, DW_AT_type(*$C$DW$T$333)
     832                            .dwattr $C$DW$121, DW_AT_location[DW_OP_breg13 4]
     833                    
     834 00000002 9100              STR       A2, [SP, #0]          ; [DPU_V7M3_PIPE] |140|  ; [ORIG 16-BIT INS]
     835 00000004 0004F8AD          STRH      A1, [SP, #4]          ; [DPU_V7M3_PIPE] |140|  ; [KEEP 32-BIT INS]
     836                            .dwpsn  file "/vagrant/Q1_eng_19.3.20/sdk_root/source/ti/drivers/net/wifi/slnetif/slnetifwifi.
     837                    ;----------------------------------------------------------------------
     838                    ; 142 | return sl_Close(sd);                                                   
     839                    ;----------------------------------------------------------------------
     840 00000008 0004F9BD          LDRSH     A1, [SP, #4]          ; [DPU_V7M3_PIPE] |142|  ; [KEEP 32-BIT INS]
     841                    $C$DW$122       .dwtag  DW_TAG_TI_branch
     842                            .dwattr $C$DW$122, DW_AT_low_pc(0x00)
     843                            .dwattr $C$DW$122, DW_AT_name("sl_Close")
     844                            .dwattr $C$DW$122, DW_AT_TI_call
     845                    
     846 0000000c FFFEF7FF!         BL        sl_Close              ; [DPU_V7M3_PIPE] |142|  ; [KEEP 32-BIT INS]
     847                            ; CALL OCCURS {sl_Close }        ; [] |142| 
     848                            .dwpsn  file "/vagrant/Q1_eng_19.3.20/sdk_root/source/ti/drivers/net/wifi/slnetif/slnetifwifi.
     849                    $C$DW$123       .dwtag  DW_TAG_TI_branch
     850                            .dwattr $C$DW$123, DW_AT_low_pc(0x00)
     851                            .dwattr $C$DW$123, DW_AT_TI_return
     852                    
     853 00000010 BD0E              POP       {A2, A3, A4, PC}      ; [DPU_V7M3_PIPE]  ; [ORIG 16-BIT INS]
     854                            .dwcfi  cfa_offset, 0
     855                            .dwcfi  restore_reg, 3
     856                            .dwcfi  restore_reg, 2
     857                            .dwcfi  restore_reg, 1
     858                            ; BRANCH OCCURS                  ; [] 
     859                            .dwattr $C$DW$117, DW_AT_TI_end_file("/vagrant/Q1_eng_19.3.20/sdk_root/source/ti/drivers/net/w
     860                            .dwattr $C$DW$117, DW_AT_TI_end_line(0x8f)
     861                            .dwattr $C$DW$117, DW_AT_TI_end_column(0x01)
     862                            .dwendentry
     863                            .dwendtag $C$DW$117
     864                    
     865 00000000                   .sect   ".text:SlNetIfWifi_accept"
     866                            .clink
     867                            .thumbfunc SlNetIfWifi_accept
     868 00000000                   .thumb
     869                            .global SlNetIfWifi_accept
     870                    
     871                    $C$DW$124       .dwtag  DW_TAG_subprogram
     872                            .dwattr $C$DW$124, DW_AT_name("SlNetIfWifi_accept")
     873                            .dwattr $C$DW$124, DW_AT_low_pc(SlNetIfWifi_accept)
     874                            .dwattr $C$DW$124, DW_AT_high_pc(0x00)
     875                            .dwattr $C$DW$124, DW_AT_TI_symbol_name("SlNetIfWifi_accept")
     876                            .dwattr $C$DW$124, DW_AT_external
     877                            .dwattr $C$DW$124, DW_AT_type(*$C$DW$T$333)
     878                            .dwattr $C$DW$124, DW_AT_TI_begin_file("/vagrant/Q1_eng_19.3.20/sdk_root/source/ti/drivers/net
     879                            .dwattr $C$DW$124, DW_AT_TI_begin_line(0x97)
     880                            .dwattr $C$DW$124, DW_AT_TI_begin_column(0x09)
TI ARM Assembler Unix v20.2.0 Thu Mar 19 13:13:13 2020

Copyright (c) 1996-2018 Texas Instruments Incorporated
slnetifwifi.asm                                                      PAGE   17

     881                            .dwattr $C$DW$124, DW_AT_decl_file("/vagrant/Q1_eng_19.3.20/sdk_root/source/ti/drivers/net/wif
     882                            .dwattr $C$DW$124, DW_AT_decl_line(0x97)
     883                            .dwattr $C$DW$124, DW_AT_decl_column(0x09)
     884                            .dwattr $C$DW$124, DW_AT_TI_max_frame_size(0x18)
     885                            .dwpsn  file "/vagrant/Q1_eng_19.3.20/sdk_root/source/ti/drivers/net/wifi/slnetif/slnetifwifi.
     886                    
     887                            .dwfde $C$DW$CIE, SlNetIfWifi_accept
     888                    $C$DW$125       .dwtag  DW_TAG_formal_parameter
     889                            .dwattr $C$DW$125, DW_AT_name("sd")
     890                            .dwattr $C$DW$125, DW_AT_TI_symbol_name("sd")
     891                            .dwattr $C$DW$125, DW_AT_type(*$C$DW$T$10)
     892                            .dwattr $C$DW$125, DW_AT_location[DW_OP_reg0]
     893                    
     894                    $C$DW$126       .dwtag  DW_TAG_formal_parameter
     895                            .dwattr $C$DW$126, DW_AT_name("sdContext")
     896                            .dwattr $C$DW$126, DW_AT_TI_symbol_name("sdContext")
     897                            .dwattr $C$DW$126, DW_AT_type(*$C$DW$T$3)
     898                            .dwattr $C$DW$126, DW_AT_location[DW_OP_reg1]
     899                    
     900                    $C$DW$127       .dwtag  DW_TAG_formal_parameter
     901                            .dwattr $C$DW$127, DW_AT_name("addr")
     902                            .dwattr $C$DW$127, DW_AT_TI_symbol_name("addr")
     903                            .dwattr $C$DW$127, DW_AT_type(*$C$DW$T$344)
     904                            .dwattr $C$DW$127, DW_AT_location[DW_OP_reg2]
     905                    
     906                    $C$DW$128       .dwtag  DW_TAG_formal_parameter
     907                            .dwattr $C$DW$128, DW_AT_name("addrlen")
     908                            .dwattr $C$DW$128, DW_AT_TI_symbol_name("addrlen")
     909                            .dwattr $C$DW$128, DW_AT_type(*$C$DW$T$346)
     910                            .dwattr $C$DW$128, DW_AT_location[DW_OP_reg3]
     911                    
     912                    $C$DW$129       .dwtag  DW_TAG_formal_parameter
     913                            .dwattr $C$DW$129, DW_AT_name("flags")
     914                            .dwattr $C$DW$129, DW_AT_TI_symbol_name("flags")
     915                            .dwattr $C$DW$129, DW_AT_type(*$C$DW$T$10)
     916                            .dwattr $C$DW$129, DW_AT_location[DW_OP_breg13 24]
     917                    
     918                    $C$DW$130       .dwtag  DW_TAG_formal_parameter
     919                            .dwattr $C$DW$130, DW_AT_name("acceptedSdContext")
     920                            .dwattr $C$DW$130, DW_AT_TI_symbol_name("acceptedSdContext")
     921                            .dwattr $C$DW$130, DW_AT_type(*$C$DW$T$334)
     922                            .dwattr $C$DW$130, DW_AT_location[DW_OP_breg13 28]
     923                    
     924                    ;----------------------------------------------------------------------
     925                    ; 151 | int16_t SlNetIfWifi_accept(int16_t sd, void *sdContext, SlNetSock_Addr_
     926                    ;     | t *addr, SlNetSocklen_t *addrlen, uint8_t flags, void **acceptedSdConte
     927                    ;     | xt)                                                                    
     928                    ;----------------------------------------------------------------------
     929                    
     930                    ;*****************************************************************************
     931                    ;* FUNCTION NAME: SlNetIfWifi_accept                                         *
     932                    ;*                                                                           *
     933                    ;*   Regs Modified     : A1,A2,A3,A4,V9,SP,LR,SR                             *
     934                    ;*   Regs Used         : A1,A2,A3,A4,V9,SP,LR,SR                             *
     935                    ;*   Local Frame Size  : 0 Args + 16 Auto + 4 Save = 20 byte                 *
TI ARM Assembler Unix v20.2.0 Thu Mar 19 13:13:13 2020

Copyright (c) 1996-2018 Texas Instruments Incorporated
slnetifwifi.asm                                                      PAGE   18

     936                    ;*****************************************************************************
     937 00000000           SlNetIfWifi_accept:
     938                    ;* --------------------------------------------------------------------------*
     939                            .dwcfi  cfa_offset, 0
     940 00000000 B500              PUSH      {LR}                  ; [DPU_V7M3_PIPE]  ; [ORIG 16-BIT INS]
     941                            .dwcfi  cfa_offset, 4
     942                            .dwcfi  save_reg_to_mem, 14, -4
     943 00000002 0D14F1AD          SUB       SP, SP, #20           ; [DPU_V7M3_PIPE]  ; [KEEP 32-BIT INS]
     944                            .dwcfi  cfa_offset, 24
     945                    $C$DW$131       .dwtag  DW_TAG_variable
     946                            .dwattr $C$DW$131, DW_AT_name("sdContext")
     947                            .dwattr $C$DW$131, DW_AT_TI_symbol_name("sdContext")
     948                            .dwattr $C$DW$131, DW_AT_type(*$C$DW$T$3)
     949                            .dwattr $C$DW$131, DW_AT_location[DW_OP_breg13 0]
     950                    
     951                    $C$DW$132       .dwtag  DW_TAG_variable
     952                            .dwattr $C$DW$132, DW_AT_name("addr")
     953                            .dwattr $C$DW$132, DW_AT_TI_symbol_name("addr")
     954                            .dwattr $C$DW$132, DW_AT_type(*$C$DW$T$344)
     955                            .dwattr $C$DW$132, DW_AT_location[DW_OP_breg13 4]
     956                    
     957                    $C$DW$133       .dwtag  DW_TAG_variable
     958                            .dwattr $C$DW$133, DW_AT_name("addrlen")
     959                            .dwattr $C$DW$133, DW_AT_TI_symbol_name("addrlen")
     960                            .dwattr $C$DW$133, DW_AT_type(*$C$DW$T$346)
     961                            .dwattr $C$DW$133, DW_AT_location[DW_OP_breg13 8]
     962                    
     963                    $C$DW$134       .dwtag  DW_TAG_variable
     964                            .dwattr $C$DW$134, DW_AT_name("sd")
     965                            .dwattr $C$DW$134, DW_AT_TI_symbol_name("sd")
     966                            .dwattr $C$DW$134, DW_AT_type(*$C$DW$T$333)
     967                            .dwattr $C$DW$134, DW_AT_location[DW_OP_breg13 12]
     968                    
     969 00000006 9302              STR       A4, [SP, #8]          ; [DPU_V7M3_PIPE] |152|  ; [ORIG 16-BIT INS]
     970 00000008 9201              STR       A3, [SP, #4]          ; [DPU_V7M3_PIPE] |152|  ; [ORIG 16-BIT INS]
     971 0000000a 9100              STR       A2, [SP, #0]          ; [DPU_V7M3_PIPE] |152|  ; [ORIG 16-BIT INS]
     972 0000000c 000CF8AD          STRH      A1, [SP, #12]         ; [DPU_V7M3_PIPE] |152|  ; [KEEP 32-BIT INS]
     973                            .dwpsn  file "/vagrant/Q1_eng_19.3.20/sdk_root/source/ti/drivers/net/wifi/slnetif/slnetifwifi.
     974                    ;----------------------------------------------------------------------
     975                    ; 153 | return sl_Accept(sd, (SlSockAddr_t *)addr, addrlen);                   
     976                    ;----------------------------------------------------------------------
     977 00000010 000CF9BD          LDRSH     A1, [SP, #12]         ; [DPU_V7M3_PIPE] |153|  ; [KEEP 32-BIT INS]
     978 00000014 9901              LDR       A2, [SP, #4]          ; [DPU_V7M3_PIPE] |153|  ; [ORIG 16-BIT INS]
     979 00000016 9A02              LDR       A3, [SP, #8]          ; [DPU_V7M3_PIPE] |153|  ; [ORIG 16-BIT INS]
     980                    $C$DW$135       .dwtag  DW_TAG_TI_branch
     981                            .dwattr $C$DW$135, DW_AT_low_pc(0x00)
     982                            .dwattr $C$DW$135, DW_AT_name("sl_Accept")
     983                            .dwattr $C$DW$135, DW_AT_TI_call
     984                    
     985 00000018 FFFEF7FF!         BL        sl_Accept             ; [DPU_V7M3_PIPE] |153|  ; [KEEP 32-BIT INS]
     986                            ; CALL OCCURS {sl_Accept }       ; [] |153| 
     987                            .dwpsn  file "/vagrant/Q1_eng_19.3.20/sdk_root/source/ti/drivers/net/wifi/slnetif/slnetifwifi.
     988 0000001c B005              ADD       SP, SP, #20           ; [DPU_V7M3_PIPE]  ; [ORIG 16-BIT INS]
     989                            .dwcfi  cfa_offset, 4
     990                    $C$DW$136       .dwtag  DW_TAG_TI_branch
TI ARM Assembler Unix v20.2.0 Thu Mar 19 13:13:13 2020

Copyright (c) 1996-2018 Texas Instruments Incorporated
slnetifwifi.asm                                                      PAGE   19

     991                            .dwattr $C$DW$136, DW_AT_low_pc(0x00)
     992                            .dwattr $C$DW$136, DW_AT_TI_return
     993                    
     994 0000001e BD00              POP       {PC}                  ; [DPU_V7M3_PIPE]  ; [ORIG 16-BIT INS]
     995                            .dwcfi  cfa_offset, 0
     996                            ; BRANCH OCCURS                  ; [] 
     997                            .dwattr $C$DW$124, DW_AT_TI_end_file("/vagrant/Q1_eng_19.3.20/sdk_root/source/ti/drivers/net/w
     998                            .dwattr $C$DW$124, DW_AT_TI_end_line(0x9a)
     999                            .dwattr $C$DW$124, DW_AT_TI_end_column(0x01)
    1000                            .dwendentry
    1001                            .dwendtag $C$DW$124
    1002                    
    1003 00000000                   .sect   ".text:SlNetIfWifi_bind"
    1004                            .clink
    1005                            .thumbfunc SlNetIfWifi_bind
    1006 00000000                   .thumb
    1007                            .global SlNetIfWifi_bind
    1008                    
    1009                    $C$DW$137       .dwtag  DW_TAG_subprogram
    1010                            .dwattr $C$DW$137, DW_AT_name("SlNetIfWifi_bind")
    1011                            .dwattr $C$DW$137, DW_AT_low_pc(SlNetIfWifi_bind)
    1012                            .dwattr $C$DW$137, DW_AT_high_pc(0x00)
    1013                            .dwattr $C$DW$137, DW_AT_TI_symbol_name("SlNetIfWifi_bind")
    1014                            .dwattr $C$DW$137, DW_AT_external
    1015                            .dwattr $C$DW$137, DW_AT_type(*$C$DW$T$338)
    1016                            .dwattr $C$DW$137, DW_AT_TI_begin_file("/vagrant/Q1_eng_19.3.20/sdk_root/source/ti/drivers/net
    1017                            .dwattr $C$DW$137, DW_AT_TI_begin_line(0xa2)
    1018                            .dwattr $C$DW$137, DW_AT_TI_begin_column(0x09)
    1019                            .dwattr $C$DW$137, DW_AT_decl_file("/vagrant/Q1_eng_19.3.20/sdk_root/source/ti/drivers/net/wif
    1020                            .dwattr $C$DW$137, DW_AT_decl_line(0xa2)
    1021                            .dwattr $C$DW$137, DW_AT_decl_column(0x09)
    1022                            .dwattr $C$DW$137, DW_AT_TI_max_frame_size(0x10)
    1023                            .dwpsn  file "/vagrant/Q1_eng_19.3.20/sdk_root/source/ti/drivers/net/wifi/slnetif/slnetifwifi.
    1024                    
    1025                            .dwfde $C$DW$CIE, SlNetIfWifi_bind
    1026                    $C$DW$138       .dwtag  DW_TAG_formal_parameter
    1027                            .dwattr $C$DW$138, DW_AT_name("sd")
    1028                            .dwattr $C$DW$138, DW_AT_TI_symbol_name("sd")
    1029                            .dwattr $C$DW$138, DW_AT_type(*$C$DW$T$10)
    1030                            .dwattr $C$DW$138, DW_AT_location[DW_OP_reg0]
    1031                    
    1032                    $C$DW$139       .dwtag  DW_TAG_formal_parameter
    1033                            .dwattr $C$DW$139, DW_AT_name("sdContext")
    1034                            .dwattr $C$DW$139, DW_AT_TI_symbol_name("sdContext")
    1035                            .dwattr $C$DW$139, DW_AT_type(*$C$DW$T$3)
    1036                            .dwattr $C$DW$139, DW_AT_location[DW_OP_reg1]
    1037                    
    1038                    $C$DW$140       .dwtag  DW_TAG_formal_parameter
    1039                            .dwattr $C$DW$140, DW_AT_name("addr")
    1040                            .dwattr $C$DW$140, DW_AT_TI_symbol_name("addr")
    1041                            .dwattr $C$DW$140, DW_AT_type(*$C$DW$T$350)
    1042                            .dwattr $C$DW$140, DW_AT_location[DW_OP_reg2]
    1043                    
    1044                    $C$DW$141       .dwtag  DW_TAG_formal_parameter
    1045                            .dwattr $C$DW$141, DW_AT_name("addrlen")
TI ARM Assembler Unix v20.2.0 Thu Mar 19 13:13:13 2020

Copyright (c) 1996-2018 Texas Instruments Incorporated
slnetifwifi.asm                                                      PAGE   20

    1046                            .dwattr $C$DW$141, DW_AT_TI_symbol_name("addrlen")
    1047                            .dwattr $C$DW$141, DW_AT_type(*$C$DW$T$10)
    1048                            .dwattr $C$DW$141, DW_AT_location[DW_OP_reg3]
    1049                    
    1050                    ;----------------------------------------------------------------------
    1051                    ; 162 | int32_t SlNetIfWifi_bind(int16_t sd, void *sdContext, const SlNetSock_A
    1052                    ;     | ddr_t *addr, int16_t addrlen)                                          
    1053                    ;----------------------------------------------------------------------
    1054                    
    1055                    ;*****************************************************************************
    1056                    ;* FUNCTION NAME: SlNetIfWifi_bind                                           *
    1057                    ;*                                                                           *
    1058                    ;*   Regs Modified     : A1,A2,A3,A4,V9,SP,LR,SR                             *
    1059                    ;*   Regs Used         : A1,A2,A3,A4,V9,SP,LR,SR                             *
    1060                    ;*   Local Frame Size  : 0 Args + 12 Auto + 4 Save = 16 byte                 *
    1061                    ;*****************************************************************************
    1062 00000000           SlNetIfWifi_bind:
    1063                    ;* --------------------------------------------------------------------------*
    1064                            .dwcfi  cfa_offset, 0
    1065 00000000 B50E              PUSH      {A2, A3, A4, LR}      ; [DPU_V7M3_PIPE]  ; [ORIG 16-BIT INS]
    1066                            .dwcfi  cfa_offset, 16
    1067                            .dwcfi  save_reg_to_mem, 14, -4
    1068                            .dwcfi  save_reg_to_mem, 3, -8
    1069                            .dwcfi  save_reg_to_mem, 2, -12
    1070                            .dwcfi  save_reg_to_mem, 1, -16
    1071                    $C$DW$142       .dwtag  DW_TAG_variable
    1072                            .dwattr $C$DW$142, DW_AT_name("sdContext")
    1073                            .dwattr $C$DW$142, DW_AT_TI_symbol_name("sdContext")
    1074                            .dwattr $C$DW$142, DW_AT_type(*$C$DW$T$3)
    1075                            .dwattr $C$DW$142, DW_AT_location[DW_OP_breg13 0]
    1076                    
    1077                    $C$DW$143       .dwtag  DW_TAG_variable
    1078                            .dwattr $C$DW$143, DW_AT_name("addr")
    1079                            .dwattr $C$DW$143, DW_AT_TI_symbol_name("addr")
    1080                            .dwattr $C$DW$143, DW_AT_type(*$C$DW$T$350)
    1081                            .dwattr $C$DW$143, DW_AT_location[DW_OP_breg13 4]
    1082                    
    1083                    $C$DW$144       .dwtag  DW_TAG_variable
    1084                            .dwattr $C$DW$144, DW_AT_name("sd")
    1085                            .dwattr $C$DW$144, DW_AT_TI_symbol_name("sd")
    1086                            .dwattr $C$DW$144, DW_AT_type(*$C$DW$T$333)
    1087                            .dwattr $C$DW$144, DW_AT_location[DW_OP_breg13 8]
    1088                    
    1089                    $C$DW$145       .dwtag  DW_TAG_variable
    1090                            .dwattr $C$DW$145, DW_AT_name("addrlen")
    1091                            .dwattr $C$DW$145, DW_AT_TI_symbol_name("addrlen")
    1092                            .dwattr $C$DW$145, DW_AT_type(*$C$DW$T$333)
    1093                            .dwattr $C$DW$145, DW_AT_location[DW_OP_breg13 10]
    1094                    
    1095 00000002 300AF8AD          STRH      A4, [SP, #10]         ; [DPU_V7M3_PIPE] |163|  ; [KEEP 32-BIT INS]
    1096 00000006 9201              STR       A3, [SP, #4]          ; [DPU_V7M3_PIPE] |163|  ; [ORIG 16-BIT INS]
    1097 00000008 9100              STR       A2, [SP, #0]          ; [DPU_V7M3_PIPE] |163|  ; [ORIG 16-BIT INS]
    1098 0000000a 0008F8AD          STRH      A1, [SP, #8]          ; [DPU_V7M3_PIPE] |163|  ; [KEEP 32-BIT INS]
    1099                            .dwpsn  file "/vagrant/Q1_eng_19.3.20/sdk_root/source/ti/drivers/net/wifi/slnetif/slnetifwifi.
    1100                    ;----------------------------------------------------------------------
TI ARM Assembler Unix v20.2.0 Thu Mar 19 13:13:13 2020

Copyright (c) 1996-2018 Texas Instruments Incorporated
slnetifwifi.asm                                                      PAGE   21

    1101                    ; 164 | return sl_Bind(sd, (const SlSockAddr_t *)addr, addrlen);               
    1102                    ;----------------------------------------------------------------------
    1103 0000000e 0008F9BD          LDRSH     A1, [SP, #8]          ; [DPU_V7M3_PIPE] |164|  ; [KEEP 32-BIT INS]
    1104 00000012 200AF9BD          LDRSH     A3, [SP, #10]         ; [DPU_V7M3_PIPE] |164|  ; [KEEP 32-BIT INS]
    1105 00000016 9901              LDR       A2, [SP, #4]          ; [DPU_V7M3_PIPE] |164|  ; [ORIG 16-BIT INS]
    1106                    $C$DW$146       .dwtag  DW_TAG_TI_branch
    1107                            .dwattr $C$DW$146, DW_AT_low_pc(0x00)
    1108                            .dwattr $C$DW$146, DW_AT_name("sl_Bind")
    1109                            .dwattr $C$DW$146, DW_AT_TI_call
    1110                    
    1111 00000018 FFFEF7FF!         BL        sl_Bind               ; [DPU_V7M3_PIPE] |164|  ; [KEEP 32-BIT INS]
    1112                            ; CALL OCCURS {sl_Bind }         ; [] |164| 
    1113                            .dwpsn  file "/vagrant/Q1_eng_19.3.20/sdk_root/source/ti/drivers/net/wifi/slnetif/slnetifwifi.
    1114                    $C$DW$147       .dwtag  DW_TAG_TI_branch
    1115                            .dwattr $C$DW$147, DW_AT_low_pc(0x00)
    1116                            .dwattr $C$DW$147, DW_AT_TI_return
    1117                    
    1118 0000001c BD0E              POP       {A2, A3, A4, PC}      ; [DPU_V7M3_PIPE]  ; [ORIG 16-BIT INS]
    1119                            .dwcfi  cfa_offset, 0
    1120                            .dwcfi  restore_reg, 3
    1121                            .dwcfi  restore_reg, 2
    1122                            .dwcfi  restore_reg, 1
    1123                            ; BRANCH OCCURS                  ; [] 
    1124                            .dwattr $C$DW$137, DW_AT_TI_end_file("/vagrant/Q1_eng_19.3.20/sdk_root/source/ti/drivers/net/w
    1125                            .dwattr $C$DW$137, DW_AT_TI_end_line(0xa5)
    1126                            .dwattr $C$DW$137, DW_AT_TI_end_column(0x01)
    1127                            .dwendentry
    1128                            .dwendtag $C$DW$137
    1129                    
    1130 00000000                   .sect   ".text:SlNetIfWifi_listen"
    1131                            .clink
    1132                            .thumbfunc SlNetIfWifi_listen
    1133 00000000                   .thumb
    1134                            .global SlNetIfWifi_listen
    1135                    
    1136                    $C$DW$148       .dwtag  DW_TAG_subprogram
    1137                            .dwattr $C$DW$148, DW_AT_name("SlNetIfWifi_listen")
    1138                            .dwattr $C$DW$148, DW_AT_low_pc(SlNetIfWifi_listen)
    1139                            .dwattr $C$DW$148, DW_AT_high_pc(0x00)
    1140                            .dwattr $C$DW$148, DW_AT_TI_symbol_name("SlNetIfWifi_listen")
    1141                            .dwattr $C$DW$148, DW_AT_external
    1142                            .dwattr $C$DW$148, DW_AT_type(*$C$DW$T$338)
    1143                            .dwattr $C$DW$148, DW_AT_TI_begin_file("/vagrant/Q1_eng_19.3.20/sdk_root/source/ti/drivers/net
    1144                            .dwattr $C$DW$148, DW_AT_TI_begin_line(0xad)
    1145                            .dwattr $C$DW$148, DW_AT_TI_begin_column(0x09)
    1146                            .dwattr $C$DW$148, DW_AT_decl_file("/vagrant/Q1_eng_19.3.20/sdk_root/source/ti/drivers/net/wif
    1147                            .dwattr $C$DW$148, DW_AT_decl_line(0xad)
    1148                            .dwattr $C$DW$148, DW_AT_decl_column(0x09)
    1149                            .dwattr $C$DW$148, DW_AT_TI_max_frame_size(0x10)
    1150                            .dwpsn  file "/vagrant/Q1_eng_19.3.20/sdk_root/source/ti/drivers/net/wifi/slnetif/slnetifwifi.
    1151                    
    1152                            .dwfde $C$DW$CIE, SlNetIfWifi_listen
    1153                    $C$DW$149       .dwtag  DW_TAG_formal_parameter
    1154                            .dwattr $C$DW$149, DW_AT_name("sd")
    1155                            .dwattr $C$DW$149, DW_AT_TI_symbol_name("sd")
TI ARM Assembler Unix v20.2.0 Thu Mar 19 13:13:13 2020

Copyright (c) 1996-2018 Texas Instruments Incorporated
slnetifwifi.asm                                                      PAGE   22

    1156                            .dwattr $C$DW$149, DW_AT_type(*$C$DW$T$10)
    1157                            .dwattr $C$DW$149, DW_AT_location[DW_OP_reg0]
    1158                    
    1159                    $C$DW$150       .dwtag  DW_TAG_formal_parameter
    1160                            .dwattr $C$DW$150, DW_AT_name("sdContext")
    1161                            .dwattr $C$DW$150, DW_AT_TI_symbol_name("sdContext")
    1162                            .dwattr $C$DW$150, DW_AT_type(*$C$DW$T$3)
    1163                            .dwattr $C$DW$150, DW_AT_location[DW_OP_reg1]
    1164                    
    1165                    $C$DW$151       .dwtag  DW_TAG_formal_parameter
    1166                            .dwattr $C$DW$151, DW_AT_name("backlog")
    1167                            .dwattr $C$DW$151, DW_AT_TI_symbol_name("backlog")
    1168                            .dwattr $C$DW$151, DW_AT_type(*$C$DW$T$10)
    1169                            .dwattr $C$DW$151, DW_AT_location[DW_OP_reg2]
    1170                    
    1171                    ;----------------------------------------------------------------------
    1172                    ; 173 | int32_t SlNetIfWifi_listen(int16_t sd, void *sdContext, int16_t backlog
    1173                    ;     | )                                                                      
    1174                    ;----------------------------------------------------------------------
    1175                    
    1176                    ;*****************************************************************************
    1177                    ;* FUNCTION NAME: SlNetIfWifi_listen                                         *
    1178                    ;*                                                                           *
    1179                    ;*   Regs Modified     : A1,A2,A3,A4,V9,SP,LR,SR                             *
    1180                    ;*   Regs Used         : A1,A2,A3,A4,V9,SP,LR,SR                             *
    1181                    ;*   Local Frame Size  : 0 Args + 8 Auto + 4 Save = 12 byte                  *
    1182                    ;*****************************************************************************
    1183 00000000           SlNetIfWifi_listen:
    1184                    ;* --------------------------------------------------------------------------*
    1185                            .dwcfi  cfa_offset, 0
    1186 00000000 B50E              PUSH      {A2, A3, A4, LR}      ; [DPU_V7M3_PIPE]  ; [ORIG 16-BIT INS]
    1187                            .dwcfi  cfa_offset, 16
    1188                            .dwcfi  save_reg_to_mem, 14, -4
    1189                            .dwcfi  save_reg_to_mem, 3, -8
    1190                            .dwcfi  save_reg_to_mem, 2, -12
    1191                            .dwcfi  save_reg_to_mem, 1, -16
    1192                    $C$DW$152       .dwtag  DW_TAG_variable
    1193                            .dwattr $C$DW$152, DW_AT_name("sdContext")
    1194                            .dwattr $C$DW$152, DW_AT_TI_symbol_name("sdContext")
    1195                            .dwattr $C$DW$152, DW_AT_type(*$C$DW$T$3)
    1196                            .dwattr $C$DW$152, DW_AT_location[DW_OP_breg13 0]
    1197                    
    1198                    $C$DW$153       .dwtag  DW_TAG_variable
    1199                            .dwattr $C$DW$153, DW_AT_name("sd")
    1200                            .dwattr $C$DW$153, DW_AT_TI_symbol_name("sd")
    1201                            .dwattr $C$DW$153, DW_AT_type(*$C$DW$T$333)
    1202                            .dwattr $C$DW$153, DW_AT_location[DW_OP_breg13 4]
    1203                    
    1204                    $C$DW$154       .dwtag  DW_TAG_variable
    1205                            .dwattr $C$DW$154, DW_AT_name("backlog")
    1206                            .dwattr $C$DW$154, DW_AT_TI_symbol_name("backlog")
    1207                            .dwattr $C$DW$154, DW_AT_type(*$C$DW$T$333)
    1208                            .dwattr $C$DW$154, DW_AT_location[DW_OP_breg13 6]
    1209                    
    1210 00000002 2006F8AD          STRH      A3, [SP, #6]          ; [DPU_V7M3_PIPE] |174|  ; [KEEP 32-BIT INS]
TI ARM Assembler Unix v20.2.0 Thu Mar 19 13:13:13 2020

Copyright (c) 1996-2018 Texas Instruments Incorporated
slnetifwifi.asm                                                      PAGE   23

    1211 00000006 9100              STR       A2, [SP, #0]          ; [DPU_V7M3_PIPE] |174|  ; [ORIG 16-BIT INS]
    1212 00000008 0004F8AD          STRH      A1, [SP, #4]          ; [DPU_V7M3_PIPE] |174|  ; [KEEP 32-BIT INS]
    1213                            .dwpsn  file "/vagrant/Q1_eng_19.3.20/sdk_root/source/ti/drivers/net/wifi/slnetif/slnetifwifi.
    1214                    ;----------------------------------------------------------------------
    1215                    ; 175 | return sl_Listen(sd, backlog);                                         
    1216                    ;----------------------------------------------------------------------
    1217 0000000c 0004F9BD          LDRSH     A1, [SP, #4]          ; [DPU_V7M3_PIPE] |175|  ; [KEEP 32-BIT INS]
    1218 00000010 1006F9BD          LDRSH     A2, [SP, #6]          ; [DPU_V7M3_PIPE] |175|  ; [KEEP 32-BIT INS]
    1219                    $C$DW$155       .dwtag  DW_TAG_TI_branch
    1220                            .dwattr $C$DW$155, DW_AT_low_pc(0x00)
    1221                            .dwattr $C$DW$155, DW_AT_name("sl_Listen")
    1222                            .dwattr $C$DW$155, DW_AT_TI_call
    1223                    
    1224 00000014 FFFEF7FF!         BL        sl_Listen             ; [DPU_V7M3_PIPE] |175|  ; [KEEP 32-BIT INS]
    1225                            ; CALL OCCURS {sl_Listen }       ; [] |175| 
    1226                            .dwpsn  file "/vagrant/Q1_eng_19.3.20/sdk_root/source/ti/drivers/net/wifi/slnetif/slnetifwifi.
    1227                    $C$DW$156       .dwtag  DW_TAG_TI_branch
    1228                            .dwattr $C$DW$156, DW_AT_low_pc(0x00)
    1229                            .dwattr $C$DW$156, DW_AT_TI_return
    1230                    
    1231 00000018 BD0E              POP       {A2, A3, A4, PC}      ; [DPU_V7M3_PIPE]  ; [ORIG 16-BIT INS]
    1232                            .dwcfi  cfa_offset, 0
    1233                            .dwcfi  restore_reg, 3
    1234                            .dwcfi  restore_reg, 2
    1235                            .dwcfi  restore_reg, 1
    1236                            ; BRANCH OCCURS                  ; [] 
    1237                            .dwattr $C$DW$148, DW_AT_TI_end_file("/vagrant/Q1_eng_19.3.20/sdk_root/source/ti/drivers/net/w
    1238                            .dwattr $C$DW$148, DW_AT_TI_end_line(0xb0)
    1239                            .dwattr $C$DW$148, DW_AT_TI_end_column(0x01)
    1240                            .dwendentry
    1241                            .dwendtag $C$DW$148
    1242                    
    1243 00000000                   .sect   ".text:SlNetIfWifi_connect"
    1244                            .clink
    1245                            .thumbfunc SlNetIfWifi_connect
    1246 00000000                   .thumb
    1247                            .global SlNetIfWifi_connect
    1248                    
    1249                    $C$DW$157       .dwtag  DW_TAG_subprogram
    1250                            .dwattr $C$DW$157, DW_AT_name("SlNetIfWifi_connect")
    1251                            .dwattr $C$DW$157, DW_AT_low_pc(SlNetIfWifi_connect)
    1252                            .dwattr $C$DW$157, DW_AT_high_pc(0x00)
    1253                            .dwattr $C$DW$157, DW_AT_TI_symbol_name("SlNetIfWifi_connect")
    1254                            .dwattr $C$DW$157, DW_AT_external
    1255                            .dwattr $C$DW$157, DW_AT_type(*$C$DW$T$338)
    1256                            .dwattr $C$DW$157, DW_AT_TI_begin_file("/vagrant/Q1_eng_19.3.20/sdk_root/source/ti/drivers/net
    1257                            .dwattr $C$DW$157, DW_AT_TI_begin_line(0xb8)
    1258                            .dwattr $C$DW$157, DW_AT_TI_begin_column(0x09)
    1259                            .dwattr $C$DW$157, DW_AT_decl_file("/vagrant/Q1_eng_19.3.20/sdk_root/source/ti/drivers/net/wif
    1260                            .dwattr $C$DW$157, DW_AT_decl_line(0xb8)
    1261                            .dwattr $C$DW$157, DW_AT_decl_column(0x09)
    1262                            .dwattr $C$DW$157, DW_AT_TI_max_frame_size(0x10)
    1263                            .dwpsn  file "/vagrant/Q1_eng_19.3.20/sdk_root/source/ti/drivers/net/wifi/slnetif/slnetifwifi.
    1264                    
    1265                            .dwfde $C$DW$CIE, SlNetIfWifi_connect
TI ARM Assembler Unix v20.2.0 Thu Mar 19 13:13:13 2020

Copyright (c) 1996-2018 Texas Instruments Incorporated
slnetifwifi.asm                                                      PAGE   24

    1266                    $C$DW$158       .dwtag  DW_TAG_formal_parameter
    1267                            .dwattr $C$DW$158, DW_AT_name("sd")
    1268                            .dwattr $C$DW$158, DW_AT_TI_symbol_name("sd")
    1269                            .dwattr $C$DW$158, DW_AT_type(*$C$DW$T$10)
    1270                            .dwattr $C$DW$158, DW_AT_location[DW_OP_reg0]
    1271                    
    1272                    $C$DW$159       .dwtag  DW_TAG_formal_parameter
    1273                            .dwattr $C$DW$159, DW_AT_name("sdContext")
    1274                            .dwattr $C$DW$159, DW_AT_TI_symbol_name("sdContext")
    1275                            .dwattr $C$DW$159, DW_AT_type(*$C$DW$T$3)
    1276                            .dwattr $C$DW$159, DW_AT_location[DW_OP_reg1]
    1277                    
    1278                    $C$DW$160       .dwtag  DW_TAG_formal_parameter
    1279                            .dwattr $C$DW$160, DW_AT_name("addr")
    1280                            .dwattr $C$DW$160, DW_AT_TI_symbol_name("addr")
    1281                            .dwattr $C$DW$160, DW_AT_type(*$C$DW$T$350)
    1282                            .dwattr $C$DW$160, DW_AT_location[DW_OP_reg2]
    1283                    
    1284                    $C$DW$161       .dwtag  DW_TAG_formal_parameter
    1285                            .dwattr $C$DW$161, DW_AT_name("addrlen")
    1286                            .dwattr $C$DW$161, DW_AT_TI_symbol_name("addrlen")
    1287                            .dwattr $C$DW$161, DW_AT_type(*$C$DW$T$10)
    1288                            .dwattr $C$DW$161, DW_AT_location[DW_OP_reg3]
    1289                    
    1290                    $C$DW$162       .dwtag  DW_TAG_formal_parameter
    1291                            .dwattr $C$DW$162, DW_AT_name("flags")
    1292                            .dwattr $C$DW$162, DW_AT_TI_symbol_name("flags")
    1293                            .dwattr $C$DW$162, DW_AT_type(*$C$DW$T$10)
    1294                            .dwattr $C$DW$162, DW_AT_location[DW_OP_breg13 16]
    1295                    
    1296                    ;----------------------------------------------------------------------
    1297                    ; 184 | int32_t SlNetIfWifi_connect(int16_t sd, void *sdContext, const SlNetSoc
    1298                    ;     | k_Addr_t *addr, SlNetSocklen_t addrlen, uint8_t flags)                 
    1299                    ;----------------------------------------------------------------------
    1300                    
    1301                    ;*****************************************************************************
    1302                    ;* FUNCTION NAME: SlNetIfWifi_connect                                        *
    1303                    ;*                                                                           *
    1304                    ;*   Regs Modified     : A1,A2,A3,A4,V9,SP,LR,SR                             *
    1305                    ;*   Regs Used         : A1,A2,A3,A4,V9,SP,LR,SR                             *
    1306                    ;*   Local Frame Size  : 0 Args + 12 Auto + 4 Save = 16 byte                 *
    1307                    ;*****************************************************************************
    1308 00000000           SlNetIfWifi_connect:
    1309                    ;* --------------------------------------------------------------------------*
    1310                            .dwcfi  cfa_offset, 0
    1311 00000000 B50E              PUSH      {A2, A3, A4, LR}      ; [DPU_V7M3_PIPE]  ; [ORIG 16-BIT INS]
    1312                            .dwcfi  cfa_offset, 16
    1313                            .dwcfi  save_reg_to_mem, 14, -4
    1314                            .dwcfi  save_reg_to_mem, 3, -8
    1315                            .dwcfi  save_reg_to_mem, 2, -12
    1316                            .dwcfi  save_reg_to_mem, 1, -16
    1317                    $C$DW$163       .dwtag  DW_TAG_variable
    1318                            .dwattr $C$DW$163, DW_AT_name("sdContext")
    1319                            .dwattr $C$DW$163, DW_AT_TI_symbol_name("sdContext")
    1320                            .dwattr $C$DW$163, DW_AT_type(*$C$DW$T$3)
TI ARM Assembler Unix v20.2.0 Thu Mar 19 13:13:13 2020

Copyright (c) 1996-2018 Texas Instruments Incorporated
slnetifwifi.asm                                                      PAGE   25

    1321                            .dwattr $C$DW$163, DW_AT_location[DW_OP_breg13 0]
    1322                    
    1323                    $C$DW$164       .dwtag  DW_TAG_variable
    1324                            .dwattr $C$DW$164, DW_AT_name("addr")
    1325                            .dwattr $C$DW$164, DW_AT_TI_symbol_name("addr")
    1326                            .dwattr $C$DW$164, DW_AT_type(*$C$DW$T$350)
    1327                            .dwattr $C$DW$164, DW_AT_location[DW_OP_breg13 4]
    1328                    
    1329                    $C$DW$165       .dwtag  DW_TAG_variable
    1330                            .dwattr $C$DW$165, DW_AT_name("sd")
    1331                            .dwattr $C$DW$165, DW_AT_TI_symbol_name("sd")
    1332                            .dwattr $C$DW$165, DW_AT_type(*$C$DW$T$333)
    1333                            .dwattr $C$DW$165, DW_AT_location[DW_OP_breg13 8]
    1334                    
    1335                    $C$DW$166       .dwtag  DW_TAG_variable
    1336                            .dwattr $C$DW$166, DW_AT_name("addrlen")
    1337                            .dwattr $C$DW$166, DW_AT_TI_symbol_name("addrlen")
    1338                            .dwattr $C$DW$166, DW_AT_type(*$C$DW$T$345)
    1339                            .dwattr $C$DW$166, DW_AT_location[DW_OP_breg13 10]
    1340                    
    1341 00000002 300AF8AD          STRH      A4, [SP, #10]         ; [DPU_V7M3_PIPE] |185|  ; [KEEP 32-BIT INS]
    1342 00000006 9201              STR       A3, [SP, #4]          ; [DPU_V7M3_PIPE] |185|  ; [ORIG 16-BIT INS]
    1343 00000008 9100              STR       A2, [SP, #0]          ; [DPU_V7M3_PIPE] |185|  ; [ORIG 16-BIT INS]
    1344 0000000a 0008F8AD          STRH      A1, [SP, #8]          ; [DPU_V7M3_PIPE] |185|  ; [KEEP 32-BIT INS]
    1345                            .dwpsn  file "/vagrant/Q1_eng_19.3.20/sdk_root/source/ti/drivers/net/wifi/slnetif/slnetifwifi.
    1346                    ;----------------------------------------------------------------------
    1347                    ; 186 | return sl_Connect(sd, (const SlSockAddr_t *)addr, addrlen);            
    1348                    ;----------------------------------------------------------------------
    1349 0000000e 0008F9BD          LDRSH     A1, [SP, #8]          ; [DPU_V7M3_PIPE] |186|  ; [KEEP 32-BIT INS]
    1350 00000012 200AF9BD          LDRSH     A3, [SP, #10]         ; [DPU_V7M3_PIPE] |186|  ; [KEEP 32-BIT INS]
    1351 00000016 9901              LDR       A2, [SP, #4]          ; [DPU_V7M3_PIPE] |186|  ; [ORIG 16-BIT INS]
    1352                    $C$DW$167       .dwtag  DW_TAG_TI_branch
    1353                            .dwattr $C$DW$167, DW_AT_low_pc(0x00)
    1354                            .dwattr $C$DW$167, DW_AT_name("sl_Connect")
    1355                            .dwattr $C$DW$167, DW_AT_TI_call
    1356                    
    1357 00000018 FFFEF7FF!         BL        sl_Connect            ; [DPU_V7M3_PIPE] |186|  ; [KEEP 32-BIT INS]
    1358                            ; CALL OCCURS {sl_Connect }      ; [] |186| 
    1359                            .dwpsn  file "/vagrant/Q1_eng_19.3.20/sdk_root/source/ti/drivers/net/wifi/slnetif/slnetifwifi.
    1360                    $C$DW$168       .dwtag  DW_TAG_TI_branch
    1361                            .dwattr $C$DW$168, DW_AT_low_pc(0x00)
    1362                            .dwattr $C$DW$168, DW_AT_TI_return
    1363                    
    1364 0000001c BD0E              POP       {A2, A3, A4, PC}      ; [DPU_V7M3_PIPE]  ; [ORIG 16-BIT INS]
    1365                            .dwcfi  cfa_offset, 0
    1366                            .dwcfi  restore_reg, 3
    1367                            .dwcfi  restore_reg, 2
    1368                            .dwcfi  restore_reg, 1
    1369                            ; BRANCH OCCURS                  ; [] 
    1370                            .dwattr $C$DW$157, DW_AT_TI_end_file("/vagrant/Q1_eng_19.3.20/sdk_root/source/ti/drivers/net/w
    1371                            .dwattr $C$DW$157, DW_AT_TI_end_line(0xbb)
    1372                            .dwattr $C$DW$157, DW_AT_TI_end_column(0x01)
    1373                            .dwendentry
    1374                            .dwendtag $C$DW$157
    1375                    
TI ARM Assembler Unix v20.2.0 Thu Mar 19 13:13:13 2020

Copyright (c) 1996-2018 Texas Instruments Incorporated
slnetifwifi.asm                                                      PAGE   26

    1376 00000000                   .sect   ".text:SlNetIfWifi_getSockName"
    1377                            .clink
    1378                            .thumbfunc SlNetIfWifi_getSockName
    1379 00000000                   .thumb
    1380                            .global SlNetIfWifi_getSockName
    1381                    
    1382                    $C$DW$169       .dwtag  DW_TAG_subprogram
    1383                            .dwattr $C$DW$169, DW_AT_name("SlNetIfWifi_getSockName")
    1384                            .dwattr $C$DW$169, DW_AT_low_pc(SlNetIfWifi_getSockName)
    1385                            .dwattr $C$DW$169, DW_AT_high_pc(0x00)
    1386                            .dwattr $C$DW$169, DW_AT_TI_symbol_name("SlNetIfWifi_getSockName")
    1387                            .dwattr $C$DW$169, DW_AT_external
    1388                            .dwattr $C$DW$169, DW_AT_type(*$C$DW$T$338)
    1389                            .dwattr $C$DW$169, DW_AT_TI_begin_file("/vagrant/Q1_eng_19.3.20/sdk_root/source/ti/drivers/net
    1390                            .dwattr $C$DW$169, DW_AT_TI_begin_line(0xc4)
    1391                            .dwattr $C$DW$169, DW_AT_TI_begin_column(0x09)
    1392                            .dwattr $C$DW$169, DW_AT_decl_file("/vagrant/Q1_eng_19.3.20/sdk_root/source/ti/drivers/net/wif
    1393                            .dwattr $C$DW$169, DW_AT_decl_line(0xc4)
    1394                            .dwattr $C$DW$169, DW_AT_decl_column(0x09)
    1395                            .dwattr $C$DW$169, DW_AT_TI_max_frame_size(0x10)
    1396                            .dwpsn  file "/vagrant/Q1_eng_19.3.20/sdk_root/source/ti/drivers/net/wifi/slnetif/slnetifwifi.
    1397                    
    1398                            .dwfde $C$DW$CIE, SlNetIfWifi_getSockName
    1399                    $C$DW$170       .dwtag  DW_TAG_formal_parameter
    1400                            .dwattr $C$DW$170, DW_AT_name("sd")
    1401                            .dwattr $C$DW$170, DW_AT_TI_symbol_name("sd")
    1402                            .dwattr $C$DW$170, DW_AT_type(*$C$DW$T$10)
    1403                            .dwattr $C$DW$170, DW_AT_location[DW_OP_reg0]
    1404                    
    1405                    $C$DW$171       .dwtag  DW_TAG_formal_parameter
    1406                            .dwattr $C$DW$171, DW_AT_name("sdContext")
    1407                            .dwattr $C$DW$171, DW_AT_TI_symbol_name("sdContext")
    1408                            .dwattr $C$DW$171, DW_AT_type(*$C$DW$T$3)
    1409                            .dwattr $C$DW$171, DW_AT_location[DW_OP_reg1]
    1410                    
    1411                    $C$DW$172       .dwtag  DW_TAG_formal_parameter
    1412                            .dwattr $C$DW$172, DW_AT_name("addr")
    1413                            .dwattr $C$DW$172, DW_AT_TI_symbol_name("addr")
    1414                            .dwattr $C$DW$172, DW_AT_type(*$C$DW$T$344)
    1415                            .dwattr $C$DW$172, DW_AT_location[DW_OP_reg2]
    1416                    
    1417                    $C$DW$173       .dwtag  DW_TAG_formal_parameter
    1418                            .dwattr $C$DW$173, DW_AT_name("addrlen")
    1419                            .dwattr $C$DW$173, DW_AT_TI_symbol_name("addrlen")
    1420                            .dwattr $C$DW$173, DW_AT_type(*$C$DW$T$346)
    1421                            .dwattr $C$DW$173, DW_AT_location[DW_OP_reg3]
    1422                    
    1423                    ;----------------------------------------------------------------------
    1424                    ; 196 | int32_t SlNetIfWifi_getSockName(int16_t sd, void *sdContext, SlNetSock_
    1425                    ;     | Addr_t *addr, SlNetSocklen_t *addrlen)                                 
    1426                    ;----------------------------------------------------------------------
    1427                    
    1428                    ;*****************************************************************************
    1429                    ;* FUNCTION NAME: SlNetIfWifi_getSockName                                    *
    1430                    ;*                                                                           *
TI ARM Assembler Unix v20.2.0 Thu Mar 19 13:13:13 2020

Copyright (c) 1996-2018 Texas Instruments Incorporated
slnetifwifi.asm                                                      PAGE   27

    1431                    ;*   Regs Modified     : A1,SP                                               *
    1432                    ;*   Regs Used         : A1,A2,A3,A4,SP,LR                                   *
    1433                    ;*   Local Frame Size  : 0 Args + 16 Auto + 0 Save = 16 byte                 *
    1434                    ;*****************************************************************************
    1435 00000000           SlNetIfWifi_getSockName:
    1436                    ;* --------------------------------------------------------------------------*
    1437                            .dwcfi  cfa_offset, 0
    1438 00000000 0D10F1AD          SUB       SP, SP, #16           ; [DPU_V7M3_PIPE]  ; [KEEP 32-BIT INS]
    1439                            .dwcfi  cfa_offset, 16
    1440                    $C$DW$174       .dwtag  DW_TAG_variable
    1441                            .dwattr $C$DW$174, DW_AT_name("sdContext")
    1442                            .dwattr $C$DW$174, DW_AT_TI_symbol_name("sdContext")
    1443                            .dwattr $C$DW$174, DW_AT_type(*$C$DW$T$3)
    1444                            .dwattr $C$DW$174, DW_AT_location[DW_OP_breg13 0]
    1445                    
    1446                    $C$DW$175       .dwtag  DW_TAG_variable
    1447                            .dwattr $C$DW$175, DW_AT_name("addr")
    1448                            .dwattr $C$DW$175, DW_AT_TI_symbol_name("addr")
    1449                            .dwattr $C$DW$175, DW_AT_type(*$C$DW$T$344)
    1450                            .dwattr $C$DW$175, DW_AT_location[DW_OP_breg13 4]
    1451                    
    1452                    $C$DW$176       .dwtag  DW_TAG_variable
    1453                            .dwattr $C$DW$176, DW_AT_name("addrlen")
    1454                            .dwattr $C$DW$176, DW_AT_TI_symbol_name("addrlen")
    1455                            .dwattr $C$DW$176, DW_AT_type(*$C$DW$T$346)
    1456                            .dwattr $C$DW$176, DW_AT_location[DW_OP_breg13 8]
    1457                    
    1458                    $C$DW$177       .dwtag  DW_TAG_variable
    1459                            .dwattr $C$DW$177, DW_AT_name("sd")
    1460                            .dwattr $C$DW$177, DW_AT_TI_symbol_name("sd")
    1461                            .dwattr $C$DW$177, DW_AT_type(*$C$DW$T$333)
    1462                            .dwattr $C$DW$177, DW_AT_location[DW_OP_breg13 12]
    1463                    
    1464                    ;----------------------------------------------------------------------
    1465                    ; 198 | // Not implemented in NWP                                              
    1466                    ;----------------------------------------------------------------------
    1467 00000004 9302              STR       A4, [SP, #8]          ; [DPU_V7M3_PIPE] |197|  ; [ORIG 16-BIT INS]
    1468 00000006 9201              STR       A3, [SP, #4]          ; [DPU_V7M3_PIPE] |197|  ; [ORIG 16-BIT INS]
    1469 00000008 9100              STR       A2, [SP, #0]          ; [DPU_V7M3_PIPE] |197|  ; [ORIG 16-BIT INS]
    1470 0000000a 000CF8AD          STRH      A1, [SP, #12]         ; [DPU_V7M3_PIPE] |197|  ; [KEEP 32-BIT INS]
    1471                            .dwpsn  file "/vagrant/Q1_eng_19.3.20/sdk_root/source/ti/drivers/net/wifi/slnetif/slnetifwifi.
    1472                    ;----------------------------------------------------------------------
    1473                    ; 199 | return SLNETERR_INVALPARAM;                                            
    1474                    ;----------------------------------------------------------------------
    1475 0000000e 4801              LDR       A1, $C$CON2           ; [DPU_V7M3_PIPE] |199|  ; [ORIG 16-BIT INS]
    1476                            .dwpsn  file "/vagrant/Q1_eng_19.3.20/sdk_root/source/ti/drivers/net/wifi/slnetif/slnetifwifi.
    1477 00000010 B004              ADD       SP, SP, #16           ; [DPU_V7M3_PIPE]  ; [ORIG 16-BIT INS]
    1478                            .dwcfi  cfa_offset, 0
    1479                    $C$DW$178       .dwtag  DW_TAG_TI_branch
    1480                            .dwattr $C$DW$178, DW_AT_low_pc(0x00)
    1481                            .dwattr $C$DW$178, DW_AT_TI_return
    1482                    
    1483 00000012 4770              BX        LR                    ; [DPU_V7M3_PIPE]  ; [ORIG 16-BIT INS]
    1484                            ; BRANCH OCCURS                  ; [] 
    1485                            .dwattr $C$DW$169, DW_AT_TI_end_file("/vagrant/Q1_eng_19.3.20/sdk_root/source/ti/drivers/net/w
TI ARM Assembler Unix v20.2.0 Thu Mar 19 13:13:13 2020

Copyright (c) 1996-2018 Texas Instruments Incorporated
slnetifwifi.asm                                                      PAGE   28

    1486                            .dwattr $C$DW$169, DW_AT_TI_end_line(0xc8)
    1487                            .dwattr $C$DW$169, DW_AT_TI_end_column(0x01)
    1488                            .dwendentry
    1489                            .dwendtag $C$DW$169
    1490                    
    1491 00000000                   .sect   ".text:SlNetIfWifi_select"
    1492                            .clink
    1493                            .thumbfunc SlNetIfWifi_select
    1494 00000000                   .thumb
    1495                            .global SlNetIfWifi_select
    1496                    
    1497                    $C$DW$179       .dwtag  DW_TAG_subprogram
    1498                            .dwattr $C$DW$179, DW_AT_name("SlNetIfWifi_select")
    1499                            .dwattr $C$DW$179, DW_AT_low_pc(SlNetIfWifi_select)
    1500                            .dwattr $C$DW$179, DW_AT_high_pc(0x00)
    1501                            .dwattr $C$DW$179, DW_AT_TI_symbol_name("SlNetIfWifi_select")
    1502                            .dwattr $C$DW$179, DW_AT_external
    1503                            .dwattr $C$DW$179, DW_AT_type(*$C$DW$T$338)
    1504                            .dwattr $C$DW$179, DW_AT_TI_begin_file("/vagrant/Q1_eng_19.3.20/sdk_root/source/ti/drivers/net
    1505                            .dwattr $C$DW$179, DW_AT_TI_begin_line(0xd0)
    1506                            .dwattr $C$DW$179, DW_AT_TI_begin_column(0x09)
    1507                            .dwattr $C$DW$179, DW_AT_decl_file("/vagrant/Q1_eng_19.3.20/sdk_root/source/ti/drivers/net/wif
    1508                            .dwattr $C$DW$179, DW_AT_decl_line(0xd0)
    1509                            .dwattr $C$DW$179, DW_AT_decl_column(0x09)
    1510                            .dwattr $C$DW$179, DW_AT_TI_max_frame_size(0x28)
    1511                            .dwpsn  file "/vagrant/Q1_eng_19.3.20/sdk_root/source/ti/drivers/net/wifi/slnetif/slnetifwifi.
    1512                    
    1513                            .dwfde $C$DW$CIE, SlNetIfWifi_select
    1514                    $C$DW$180       .dwtag  DW_TAG_formal_parameter
    1515                            .dwattr $C$DW$180, DW_AT_name("ifContext")
    1516                            .dwattr $C$DW$180, DW_AT_TI_symbol_name("ifContext")
    1517                            .dwattr $C$DW$180, DW_AT_type(*$C$DW$T$3)
    1518                            .dwattr $C$DW$180, DW_AT_location[DW_OP_reg0]
    1519                    
    1520                    $C$DW$181       .dwtag  DW_TAG_formal_parameter
    1521                            .dwattr $C$DW$181, DW_AT_name("nfds")
    1522                            .dwattr $C$DW$181, DW_AT_TI_symbol_name("nfds")
    1523                            .dwattr $C$DW$181, DW_AT_type(*$C$DW$T$10)
    1524                            .dwattr $C$DW$181, DW_AT_location[DW_OP_reg1]
    1525                    
    1526                    $C$DW$182       .dwtag  DW_TAG_formal_parameter
    1527                            .dwattr $C$DW$182, DW_AT_name("readsds")
    1528                            .dwattr $C$DW$182, DW_AT_TI_symbol_name("readsds")
    1529                            .dwattr $C$DW$182, DW_AT_type(*$C$DW$T$358)
    1530                            .dwattr $C$DW$182, DW_AT_location[DW_OP_reg2]
    1531                    
    1532                    $C$DW$183       .dwtag  DW_TAG_formal_parameter
    1533                            .dwattr $C$DW$183, DW_AT_name("writesds")
    1534                            .dwattr $C$DW$183, DW_AT_TI_symbol_name("writesds")
    1535                            .dwattr $C$DW$183, DW_AT_type(*$C$DW$T$358)
    1536                            .dwattr $C$DW$183, DW_AT_location[DW_OP_reg3]
    1537                    
    1538                    $C$DW$184       .dwtag  DW_TAG_formal_parameter
    1539                            .dwattr $C$DW$184, DW_AT_name("exceptsds")
    1540                            .dwattr $C$DW$184, DW_AT_TI_symbol_name("exceptsds")
TI ARM Assembler Unix v20.2.0 Thu Mar 19 13:13:13 2020

Copyright (c) 1996-2018 Texas Instruments Incorporated
slnetifwifi.asm                                                      PAGE   29

    1541                            .dwattr $C$DW$184, DW_AT_type(*$C$DW$T$358)
    1542                            .dwattr $C$DW$184, DW_AT_location[DW_OP_breg13 40]
    1543                    
    1544                    $C$DW$185       .dwtag  DW_TAG_formal_parameter
    1545                            .dwattr $C$DW$185, DW_AT_name("timeout")
    1546                            .dwattr $C$DW$185, DW_AT_TI_symbol_name("timeout")
    1547                            .dwattr $C$DW$185, DW_AT_type(*$C$DW$T$360)
    1548                            .dwattr $C$DW$185, DW_AT_location[DW_OP_breg13 44]
    1549                    
    1550                    ;----------------------------------------------------------------------
    1551                    ; 208 | int32_t SlNetIfWifi_select(void *ifContext, int16_t nfds, SlNetSock_SdS
    1552                    ;     | et_t *readsds, SlNetSock_SdSet_t *writesds, SlNetSock_SdSet_t *exceptsd
    1553                    ;     | s, SlNetSock_Timeval_t *timeout)                                       
    1554                    ;----------------------------------------------------------------------
    1555                    
    1556                    ;*****************************************************************************
    1557                    ;* FUNCTION NAME: SlNetIfWifi_select                                         *
    1558                    ;*                                                                           *
    1559                    ;*   Regs Modified     : A1,A2,A3,A4,V9,SP,LR,SR                             *
    1560                    ;*   Regs Used         : A1,A2,A3,A4,V9,SP,LR,SR                             *
    1561                    ;*   Local Frame Size  : 4 Args + 32 Auto + 4 Save = 40 byte                 *
    1562                    ;*****************************************************************************
    1563 00000000           SlNetIfWifi_select:
    1564                    ;* --------------------------------------------------------------------------*
    1565                            .dwcfi  cfa_offset, 0
    1566 00000000 B500              PUSH      {LR}                  ; [DPU_V7M3_PIPE]  ; [ORIG 16-BIT INS]
    1567                            .dwcfi  cfa_offset, 4
    1568                            .dwcfi  save_reg_to_mem, 14, -4
    1569 00000002 0D24F1AD          SUB       SP, SP, #36           ; [DPU_V7M3_PIPE]  ; [KEEP 32-BIT INS]
    1570                            .dwcfi  cfa_offset, 40
    1571                    $C$DW$186       .dwtag  DW_TAG_variable
    1572                            .dwattr $C$DW$186, DW_AT_name("tv")
    1573                            .dwattr $C$DW$186, DW_AT_TI_symbol_name("tv")
    1574                            .dwattr $C$DW$186, DW_AT_type(*$C$DW$T$709)
    1575                            .dwattr $C$DW$186, DW_AT_location[DW_OP_breg13 8]
    1576                    
    1577                    $C$DW$187       .dwtag  DW_TAG_variable
    1578                            .dwattr $C$DW$187, DW_AT_name("ifContext")
    1579                            .dwattr $C$DW$187, DW_AT_TI_symbol_name("ifContext")
    1580                            .dwattr $C$DW$187, DW_AT_type(*$C$DW$T$3)
    1581                            .dwattr $C$DW$187, DW_AT_location[DW_OP_breg13 16]
    1582                    
    1583                    $C$DW$188       .dwtag  DW_TAG_variable
    1584                            .dwattr $C$DW$188, DW_AT_name("readsds")
    1585                            .dwattr $C$DW$188, DW_AT_TI_symbol_name("readsds")
    1586                            .dwattr $C$DW$188, DW_AT_type(*$C$DW$T$358)
    1587                            .dwattr $C$DW$188, DW_AT_location[DW_OP_breg13 20]
    1588                    
    1589                    $C$DW$189       .dwtag  DW_TAG_variable
    1590                            .dwattr $C$DW$189, DW_AT_name("writesds")
    1591                            .dwattr $C$DW$189, DW_AT_TI_symbol_name("writesds")
    1592                            .dwattr $C$DW$189, DW_AT_type(*$C$DW$T$358)
    1593                            .dwattr $C$DW$189, DW_AT_location[DW_OP_breg13 24]
    1594                    
    1595                    $C$DW$190       .dwtag  DW_TAG_variable
TI ARM Assembler Unix v20.2.0 Thu Mar 19 13:13:13 2020

Copyright (c) 1996-2018 Texas Instruments Incorporated
slnetifwifi.asm                                                      PAGE   30

    1596                            .dwattr $C$DW$190, DW_AT_name("slNetSockTimeVal")
    1597                            .dwattr $C$DW$190, DW_AT_TI_symbol_name("slNetSockTimeVal")
    1598                            .dwattr $C$DW$190, DW_AT_type(*$C$DW$T$360)
    1599                            .dwattr $C$DW$190, DW_AT_location[DW_OP_breg13 28]
    1600                    
    1601                    $C$DW$191       .dwtag  DW_TAG_variable
    1602                            .dwattr $C$DW$191, DW_AT_name("nfds")
    1603                            .dwattr $C$DW$191, DW_AT_TI_symbol_name("nfds")
    1604                            .dwattr $C$DW$191, DW_AT_type(*$C$DW$T$333)
    1605                            .dwattr $C$DW$191, DW_AT_location[DW_OP_breg13 32]
    1606                    
    1607                    ;----------------------------------------------------------------------
    1608                    ; 210 | SlNetSock_Timeval_t *slNetSockTimeVal;                                 
    1609                    ; 211 | SlTimeval_t tv;                                                        
    1610                    ;----------------------------------------------------------------------
    1611 00000006 9306              STR       A4, [SP, #24]         ; [DPU_V7M3_PIPE] |209|  ; [ORIG 16-BIT INS]
    1612 00000008 9205              STR       A3, [SP, #20]         ; [DPU_V7M3_PIPE] |209|  ; [ORIG 16-BIT INS]
    1613 0000000a 1020F8AD          STRH      A2, [SP, #32]         ; [DPU_V7M3_PIPE] |209|  ; [KEEP 32-BIT INS]
    1614 0000000e 9004              STR       A1, [SP, #16]         ; [DPU_V7M3_PIPE] |209|  ; [ORIG 16-BIT INS]
    1615                            .dwpsn  file "/vagrant/Q1_eng_19.3.20/sdk_root/source/ti/drivers/net/wifi/slnetif/slnetifwifi.
    1616                    ;----------------------------------------------------------------------
    1617                    ; 213 | slNetSockTimeVal = (SlNetSock_Timeval_t *)timeout;                     
    1618                    ;----------------------------------------------------------------------
    1619 00000010 980B              LDR       A1, [SP, #44]         ; [DPU_V7M3_PIPE] |213|  ; [ORIG 16-BIT INS]
    1620 00000012 9007              STR       A1, [SP, #28]         ; [DPU_V7M3_PIPE] |213|  ; [ORIG 16-BIT INS]
    1621                            .dwpsn  file "/vagrant/Q1_eng_19.3.20/sdk_root/source/ti/drivers/net/wifi/slnetif/slnetifwifi.
    1622                    ;----------------------------------------------------------------------
    1623                    ; 214 | tv.tv_sec = slNetSockTimeVal->tv_sec;                                  
    1624                    ;----------------------------------------------------------------------
    1625 00000014 9807              LDR       A1, [SP, #28]         ; [DPU_V7M3_PIPE] |214|  ; [ORIG 16-BIT INS]
    1626 00000016 6800              LDR       A1, [A1, #0]          ; [DPU_V7M3_PIPE] |214|  ; [ORIG 16-BIT INS]
    1627 00000018 9002              STR       A1, [SP, #8]          ; [DPU_V7M3_PIPE] |214|  ; [ORIG 16-BIT INS]
    1628                            .dwpsn  file "/vagrant/Q1_eng_19.3.20/sdk_root/source/ti/drivers/net/wifi/slnetif/slnetifwifi.
    1629                    ;----------------------------------------------------------------------
    1630                    ; 215 | tv.tv_usec = slNetSockTimeVal->tv_usec;                                
    1631                    ;----------------------------------------------------------------------
    1632 0000001a 9807              LDR       A1, [SP, #28]         ; [DPU_V7M3_PIPE] |215|  ; [ORIG 16-BIT INS]
    1633 0000001c 6840              LDR       A1, [A1, #4]          ; [DPU_V7M3_PIPE] |215|  ; [ORIG 16-BIT INS]
    1634 0000001e 9003              STR       A1, [SP, #12]         ; [DPU_V7M3_PIPE] |215|  ; [ORIG 16-BIT INS]
    1635                            .dwpsn  file "/vagrant/Q1_eng_19.3.20/sdk_root/source/ti/drivers/net/wifi/slnetif/slnetifwifi.
    1636                    ;----------------------------------------------------------------------
    1637                    ; 216 | return sl_Select(nfds, (SlFdSet_t *)readsds, (SlFdSet_t *)writesds, (Sl
    1638                    ;     | FdSet_t *)exceptsds, &tv);                                             
    1639                    ;----------------------------------------------------------------------
    1640 00000020 A802              ADD       A1, SP, #8            ; [DPU_V7M3_PIPE] |216|  ; [ORIG 16-BIT INS]
    1641 00000022 9B0A              LDR       A4, [SP, #40]         ; [DPU_V7M3_PIPE] |216|  ; [ORIG 16-BIT INS]
    1642 00000024 9000              STR       A1, [SP, #0]          ; [DPU_V7M3_PIPE] |216|  ; [ORIG 16-BIT INS]
    1643 00000026 0020F9BD          LDRSH     A1, [SP, #32]         ; [DPU_V7M3_PIPE] |216|  ; [KEEP 32-BIT INS]
    1644 0000002a 9905              LDR       A2, [SP, #20]         ; [DPU_V7M3_PIPE] |216|  ; [ORIG 16-BIT INS]
    1645 0000002c 9A06              LDR       A3, [SP, #24]         ; [DPU_V7M3_PIPE] |216|  ; [ORIG 16-BIT INS]
    1646                    $C$DW$192       .dwtag  DW_TAG_TI_branch
    1647                            .dwattr $C$DW$192, DW_AT_low_pc(0x00)
    1648                            .dwattr $C$DW$192, DW_AT_name("sl_Select")
    1649                            .dwattr $C$DW$192, DW_AT_TI_call
    1650                    
TI ARM Assembler Unix v20.2.0 Thu Mar 19 13:13:13 2020

Copyright (c) 1996-2018 Texas Instruments Incorporated
slnetifwifi.asm                                                      PAGE   31

    1651 0000002e FFFEF7FF!         BL        sl_Select             ; [DPU_V7M3_PIPE] |216|  ; [KEEP 32-BIT INS]
    1652                            ; CALL OCCURS {sl_Select }       ; [] |216| 
    1653                            .dwpsn  file "/vagrant/Q1_eng_19.3.20/sdk_root/source/ti/drivers/net/wifi/slnetif/slnetifwifi.
    1654 00000032 B009              ADD       SP, SP, #36           ; [DPU_V7M3_PIPE]  ; [ORIG 16-BIT INS]
    1655                            .dwcfi  cfa_offset, 4
    1656                    $C$DW$193       .dwtag  DW_TAG_TI_branch
    1657                            .dwattr $C$DW$193, DW_AT_low_pc(0x00)
    1658                            .dwattr $C$DW$193, DW_AT_TI_return
    1659                    
    1660 00000034 BD00              POP       {PC}                  ; [DPU_V7M3_PIPE]  ; [ORIG 16-BIT INS]
    1661                            .dwcfi  cfa_offset, 0
    1662                            ; BRANCH OCCURS                  ; [] 
    1663                            .dwattr $C$DW$179, DW_AT_TI_end_file("/vagrant/Q1_eng_19.3.20/sdk_root/source/ti/drivers/net/w
    1664                            .dwattr $C$DW$179, DW_AT_TI_end_line(0xd9)
    1665                            .dwattr $C$DW$179, DW_AT_TI_end_column(0x01)
    1666                            .dwendentry
    1667                            .dwendtag $C$DW$179
    1668                    
    1669 00000000                   .sect   ".text:SlNetIfWifi_setSockOpt"
    1670                            .clink
    1671                            .thumbfunc SlNetIfWifi_setSockOpt
    1672 00000000                   .thumb
    1673                            .global SlNetIfWifi_setSockOpt
    1674                    
    1675                    $C$DW$194       .dwtag  DW_TAG_subprogram
    1676                            .dwattr $C$DW$194, DW_AT_name("SlNetIfWifi_setSockOpt")
    1677                            .dwattr $C$DW$194, DW_AT_low_pc(SlNetIfWifi_setSockOpt)
    1678                            .dwattr $C$DW$194, DW_AT_high_pc(0x00)
    1679                            .dwattr $C$DW$194, DW_AT_TI_symbol_name("SlNetIfWifi_setSockOpt")
    1680                            .dwattr $C$DW$194, DW_AT_external
    1681                            .dwattr $C$DW$194, DW_AT_type(*$C$DW$T$338)
    1682                            .dwattr $C$DW$194, DW_AT_TI_begin_file("/vagrant/Q1_eng_19.3.20/sdk_root/source/ti/drivers/net
    1683                            .dwattr $C$DW$194, DW_AT_TI_begin_line(0xe1)
    1684                            .dwattr $C$DW$194, DW_AT_TI_begin_column(0x09)
    1685                            .dwattr $C$DW$194, DW_AT_decl_file("/vagrant/Q1_eng_19.3.20/sdk_root/source/ti/drivers/net/wif
    1686                            .dwattr $C$DW$194, DW_AT_decl_line(0xe1)
    1687                            .dwattr $C$DW$194, DW_AT_decl_column(0x09)
    1688                            .dwattr $C$DW$194, DW_AT_TI_max_frame_size(0x28)
    1689                            .dwpsn  file "/vagrant/Q1_eng_19.3.20/sdk_root/source/ti/drivers/net/wifi/slnetif/slnetifwifi.
    1690                    
    1691                            .dwfde $C$DW$CIE, SlNetIfWifi_setSockOpt
    1692                    $C$DW$195       .dwtag  DW_TAG_formal_parameter
    1693                            .dwattr $C$DW$195, DW_AT_name("sd")
    1694                            .dwattr $C$DW$195, DW_AT_TI_symbol_name("sd")
    1695                            .dwattr $C$DW$195, DW_AT_type(*$C$DW$T$10)
    1696                            .dwattr $C$DW$195, DW_AT_location[DW_OP_reg0]
    1697                    
    1698                    $C$DW$196       .dwtag  DW_TAG_formal_parameter
    1699                            .dwattr $C$DW$196, DW_AT_name("sdContext")
    1700                            .dwattr $C$DW$196, DW_AT_TI_symbol_name("sdContext")
    1701                            .dwattr $C$DW$196, DW_AT_type(*$C$DW$T$3)
    1702                            .dwattr $C$DW$196, DW_AT_location[DW_OP_reg1]
    1703                    
    1704                    $C$DW$197       .dwtag  DW_TAG_formal_parameter
    1705                            .dwattr $C$DW$197, DW_AT_name("level")
TI ARM Assembler Unix v20.2.0 Thu Mar 19 13:13:13 2020

Copyright (c) 1996-2018 Texas Instruments Incorporated
slnetifwifi.asm                                                      PAGE   32

    1706                            .dwattr $C$DW$197, DW_AT_TI_symbol_name("level")
    1707                            .dwattr $C$DW$197, DW_AT_type(*$C$DW$T$10)
    1708                            .dwattr $C$DW$197, DW_AT_location[DW_OP_reg2]
    1709                    
    1710                    $C$DW$198       .dwtag  DW_TAG_formal_parameter
    1711                            .dwattr $C$DW$198, DW_AT_name("optname")
    1712                            .dwattr $C$DW$198, DW_AT_TI_symbol_name("optname")
    1713                            .dwattr $C$DW$198, DW_AT_type(*$C$DW$T$10)
    1714                            .dwattr $C$DW$198, DW_AT_location[DW_OP_reg3]
    1715                    
    1716                    $C$DW$199       .dwtag  DW_TAG_formal_parameter
    1717                            .dwattr $C$DW$199, DW_AT_name("optval")
    1718                            .dwattr $C$DW$199, DW_AT_TI_symbol_name("optval")
    1719                            .dwattr $C$DW$199, DW_AT_type(*$C$DW$T$3)
    1720                            .dwattr $C$DW$199, DW_AT_location[DW_OP_breg13 40]
    1721                    
    1722                    $C$DW$200       .dwtag  DW_TAG_formal_parameter
    1723                            .dwattr $C$DW$200, DW_AT_name("optlen")
    1724                            .dwattr $C$DW$200, DW_AT_TI_symbol_name("optlen")
    1725                            .dwattr $C$DW$200, DW_AT_type(*$C$DW$T$10)
    1726                            .dwattr $C$DW$200, DW_AT_location[DW_OP_breg13 44]
    1727                    
    1728                    ;----------------------------------------------------------------------
    1729                    ; 225 | int32_t SlNetIfWifi_setSockOpt(int16_t sd, void *sdContext, int16_t lev
    1730                    ;     | el, int16_t optname, void *optval, SlNetSocklen_t optlen)              
    1731                    ;----------------------------------------------------------------------
    1732                    
    1733                    ;*****************************************************************************
    1734                    ;* FUNCTION NAME: SlNetIfWifi_setSockOpt                                     *
    1735                    ;*                                                                           *
    1736                    ;*   Regs Modified     : A1,A2,A3,A4,V4,V9,SP,LR,SR                          *
    1737                    ;*   Regs Used         : A1,A2,A3,A4,V4,V9,SP,LR,SR                          *
    1738                    ;*   Local Frame Size  : 4 Args + 28 Auto + 8 Save = 40 byte                 *
    1739                    ;*****************************************************************************
    1740 00000000           SlNetIfWifi_setSockOpt:
    1741                    ;* --------------------------------------------------------------------------*
    1742                            .dwcfi  cfa_offset, 0
    1743 00000000 B580              PUSH      {V4, LR}              ; [DPU_V7M3_PIPE]  ; [ORIG 16-BIT INS]
    1744                            .dwcfi  cfa_offset, 8
    1745                            .dwcfi  save_reg_to_mem, 14, -4
    1746                            .dwcfi  save_reg_to_mem, 7, -8
    1747 00000002 AF02              ADD       V4, SP, #8            ; [DPU_V7M3_PIPE]  ; [ORIG 16-BIT INS]
    1748 00000004 0D20F1AD          SUB       SP, SP, #32           ; [DPU_V7M3_PIPE]  ; [KEEP 32-BIT INS]
    1749                            .dwcfi  cfa_offset, 40
    1750                    $C$DW$201       .dwtag  DW_TAG_variable
    1751                            .dwattr $C$DW$201, DW_AT_name("tv")
    1752                            .dwattr $C$DW$201, DW_AT_TI_symbol_name("tv")
    1753                            .dwattr $C$DW$201, DW_AT_type(*$C$DW$T$709)
    1754                            .dwattr $C$DW$201, DW_AT_location[DW_OP_breg13 8]
    1755                    
    1756                    $C$DW$202       .dwtag  DW_TAG_variable
    1757                            .dwattr $C$DW$202, DW_AT_name("sdContext")
    1758                            .dwattr $C$DW$202, DW_AT_TI_symbol_name("sdContext")
    1759                            .dwattr $C$DW$202, DW_AT_type(*$C$DW$T$3)
    1760                            .dwattr $C$DW$202, DW_AT_location[DW_OP_breg13 16]
TI ARM Assembler Unix v20.2.0 Thu Mar 19 13:13:13 2020

Copyright (c) 1996-2018 Texas Instruments Incorporated
slnetifwifi.asm                                                      PAGE   33

    1761                    
    1762                    $C$DW$203       .dwtag  DW_TAG_variable
    1763                            .dwattr $C$DW$203, DW_AT_name("slNetSockTimeVal")
    1764                            .dwattr $C$DW$203, DW_AT_TI_symbol_name("slNetSockTimeVal")
    1765                            .dwattr $C$DW$203, DW_AT_type(*$C$DW$T$360)
    1766                            .dwattr $C$DW$203, DW_AT_location[DW_OP_breg13 20]
    1767                    
    1768                    $C$DW$204       .dwtag  DW_TAG_variable
    1769                            .dwattr $C$DW$204, DW_AT_name("sd")
    1770                            .dwattr $C$DW$204, DW_AT_TI_symbol_name("sd")
    1771                            .dwattr $C$DW$204, DW_AT_type(*$C$DW$T$333)
    1772                            .dwattr $C$DW$204, DW_AT_location[DW_OP_breg13 24]
    1773                    
    1774                    $C$DW$205       .dwtag  DW_TAG_variable
    1775                            .dwattr $C$DW$205, DW_AT_name("level")
    1776                            .dwattr $C$DW$205, DW_AT_TI_symbol_name("level")
    1777                            .dwattr $C$DW$205, DW_AT_type(*$C$DW$T$333)
    1778                            .dwattr $C$DW$205, DW_AT_location[DW_OP_breg13 26]
    1779                    
    1780                    $C$DW$206       .dwtag  DW_TAG_variable
    1781                            .dwattr $C$DW$206, DW_AT_name("optname")
    1782                            .dwattr $C$DW$206, DW_AT_TI_symbol_name("optname")
    1783                            .dwattr $C$DW$206, DW_AT_type(*$C$DW$T$333)
    1784                            .dwattr $C$DW$206, DW_AT_location[DW_OP_breg13 28]
    1785                    
    1786                    ;----------------------------------------------------------------------
    1787                    ; 227 | SlNetSock_Timeval_t *slNetSockTimeVal;                                 
    1788                    ; 228 | SlTimeval_t tv;                                                        
    1789                    ;----------------------------------------------------------------------
    1790 00000008 301CF8AD          STRH      A4, [SP, #28]         ; [DPU_V7M3_PIPE] |226|  ; [KEEP 32-BIT INS]
    1791 0000000c 201AF8AD          STRH      A3, [SP, #26]         ; [DPU_V7M3_PIPE] |226|  ; [KEEP 32-BIT INS]
    1792 00000010 9104              STR       A2, [SP, #16]         ; [DPU_V7M3_PIPE] |226|  ; [ORIG 16-BIT INS]
    1793 00000012 0018F8AD          STRH      A1, [SP, #24]         ; [DPU_V7M3_PIPE] |226|  ; [KEEP 32-BIT INS]
    1794                            .dwpsn  file "/vagrant/Q1_eng_19.3.20/sdk_root/source/ti/drivers/net/wifi/slnetif/slnetifwifi.
    1795                    ;----------------------------------------------------------------------
    1796                    ; 230 | switch (level)                                                         
    1797                    ; 232 |     case SLNETSOCK_LVL_SOCKET:                                         
    1798                    ; 234 |         switch (optname)                                               
    1799                    ; 236 |             case SLNETSOCK_OPSOCK_RCV_TIMEO:                           
    1800                    ;----------------------------------------------------------------------
    1801 00000016 E011              B         ||$C$L3||             ; [DPU_V7M3_PIPE] |230|  ; [ORIG 16-BIT INS]
    1802                            ; BRANCH OCCURS {||$C$L3||}      ; [] |230| 
    1803                    ;* --------------------------------------------------------------------------*
    1804                    ;* --------------------------------------------------------------------------*
    1805 00000018           ||$C$L1||:    
    1806                            .dwpsn  file "/vagrant/Q1_eng_19.3.20/sdk_root/source/ti/drivers/net/wifi/slnetif/slnetifwifi.
    1807                    ;----------------------------------------------------------------------
    1808                    ; 239 | slNetSockTimeVal = (SlNetSock_Timeval_t *)optval;                      
    1809                    ;----------------------------------------------------------------------
    1810 00000018 6838              LDR       A1, [V4, #0]          ; [DPU_V7M3_PIPE] |239|  ; [ORIG 16-BIT INS]
    1811 0000001a 9005              STR       A1, [SP, #20]         ; [DPU_V7M3_PIPE] |239|  ; [ORIG 16-BIT INS]
    1812                            .dwpsn  file "/vagrant/Q1_eng_19.3.20/sdk_root/source/ti/drivers/net/wifi/slnetif/slnetifwifi.
    1813                    ;----------------------------------------------------------------------
    1814                    ; 240 | tv.tv_sec = slNetSockTimeVal->tv_sec;                                  
    1815                    ;----------------------------------------------------------------------
TI ARM Assembler Unix v20.2.0 Thu Mar 19 13:13:13 2020

Copyright (c) 1996-2018 Texas Instruments Incorporated
slnetifwifi.asm                                                      PAGE   34

    1816 0000001c 9805              LDR       A1, [SP, #20]         ; [DPU_V7M3_PIPE] |240|  ; [ORIG 16-BIT INS]
    1817 0000001e 6800              LDR       A1, [A1, #0]          ; [DPU_V7M3_PIPE] |240|  ; [ORIG 16-BIT INS]
    1818 00000020 9002              STR       A1, [SP, #8]          ; [DPU_V7M3_PIPE] |240|  ; [ORIG 16-BIT INS]
    1819                            .dwpsn  file "/vagrant/Q1_eng_19.3.20/sdk_root/source/ti/drivers/net/wifi/slnetif/slnetifwifi.
    1820                    ;----------------------------------------------------------------------
    1821                    ; 241 | tv.tv_usec = slNetSockTimeVal->tv_usec;                                
    1822                    ;----------------------------------------------------------------------
    1823 00000022 9805              LDR       A1, [SP, #20]         ; [DPU_V7M3_PIPE] |241|  ; [ORIG 16-BIT INS]
    1824 00000024 6840              LDR       A1, [A1, #4]          ; [DPU_V7M3_PIPE] |241|  ; [ORIG 16-BIT INS]
    1825 00000026 9003              STR       A1, [SP, #12]         ; [DPU_V7M3_PIPE] |241|  ; [ORIG 16-BIT INS]
    1826                            .dwpsn  file "/vagrant/Q1_eng_19.3.20/sdk_root/source/ti/drivers/net/wifi/slnetif/slnetifwifi.
    1827                    ;----------------------------------------------------------------------
    1828                    ; 242 | optval = (void *)&tv;                                                  
    1829                    ;----------------------------------------------------------------------
    1830 00000028 A802              ADD       A1, SP, #8            ; [DPU_V7M3_PIPE] |242|  ; [ORIG 16-BIT INS]
    1831 0000002a 6038              STR       A1, [V4, #0]          ; [DPU_V7M3_PIPE] |242|  ; [ORIG 16-BIT INS]
    1832                            .dwpsn  file "/vagrant/Q1_eng_19.3.20/sdk_root/source/ti/drivers/net/wifi/slnetif/slnetifwifi.
    1833                    ;----------------------------------------------------------------------
    1834                    ; 243 | optlen = sizeof(SlTimeval_t);                                          
    1835                    ;----------------------------------------------------------------------
    1836 0000002c 2008              MOVS      A1, #8                ; [DPU_V7M3_PIPE] |243|  ; [ORIG 16-BIT INS]
    1837 0000002e 80B8              STRH      A1, [V4, #4]          ; [DPU_V7M3_PIPE] |243|  ; [ORIG 16-BIT INS]
    1838                            .dwpsn  file "/vagrant/Q1_eng_19.3.20/sdk_root/source/ti/drivers/net/wifi/slnetif/slnetifwifi.
    1839                    ;----------------------------------------------------------------------
    1840                    ; 244 | break;                                                                 
    1841                    ; 246 | default:                                                               
    1842                    ; 248 | break;                                                                 
    1843                    ; 250 | break;                                                                 
    1844                    ; 252 | default:                                                               
    1845                    ; 254 | break;                                                                 
    1846                    ;----------------------------------------------------------------------
    1847 00000030 E008              B         ||$C$L4||             ; [DPU_V7M3_PIPE] |244|  ; [ORIG 16-BIT INS]
    1848                            ; BRANCH OCCURS {||$C$L4||}      ; [] |244| 
    1849                    ;* --------------------------------------------------------------------------*
    1850                    ;* --------------------------------------------------------------------------*
    1851 00000032           ||$C$L2||:    
    1852                            .dwpsn  file "/vagrant/Q1_eng_19.3.20/sdk_root/source/ti/drivers/net/wifi/slnetif/slnetifwifi.
    1853 00000032 001CF9BD          LDRSH     A1, [SP, #28]         ; [DPU_V7M3_PIPE] |234|  ; [KEEP 32-BIT INS]
    1854 00000036 3814              SUBS      A1, A1, #20           ; [DPU_V7M3_PIPE] |234|  ; [ORIG 16-BIT INS]
    1855 00000038 D0EE              BEQ       ||$C$L1||             ; [DPU_V7M3_PIPE] |234|  ; [ORIG 16-BIT INS]
    1856                            ; BRANCHCC OCCURS {||$C$L1||}    ; [] |234| 
    1857                    ;* --------------------------------------------------------------------------*
    1858 0000003a E003              B         ||$C$L4||             ; [DPU_V7M3_PIPE] |234|  ; [ORIG 16-BIT INS]
    1859                            ; BRANCH OCCURS {||$C$L4||}      ; [] |234| 
    1860                    ;* --------------------------------------------------------------------------*
    1861                    ;* --------------------------------------------------------------------------*
    1862 0000003c           ||$C$L3||:    
    1863                            .dwpsn  file "/vagrant/Q1_eng_19.3.20/sdk_root/source/ti/drivers/net/wifi/slnetif/slnetifwifi.
    1864 0000003c 001AF9BD          LDRSH     A1, [SP, #26]         ; [DPU_V7M3_PIPE] |230|  ; [KEEP 32-BIT INS]
    1865 00000040 1E40              SUBS      A1, A1, #1            ; [DPU_V7M3_PIPE] |230|  ; [ORIG 16-BIT INS]
    1866 00000042 D0F6              BEQ       ||$C$L2||             ; [DPU_V7M3_PIPE] |230|  ; [ORIG 16-BIT INS]
    1867                            ; BRANCHCC OCCURS {||$C$L2||}    ; [] |230| 
    1868                    ;* --------------------------------------------------------------------------*
    1869 00000044           ||$C$L4||:    
    1870                            .dwpsn  file "/vagrant/Q1_eng_19.3.20/sdk_root/source/ti/drivers/net/wifi/slnetif/slnetifwifi.
TI ARM Assembler Unix v20.2.0 Thu Mar 19 13:13:13 2020

Copyright (c) 1996-2018 Texas Instruments Incorporated
slnetifwifi.asm                                                      PAGE   35

    1871                    ;----------------------------------------------------------------------
    1872                    ; 257 | return sl_SetSockOpt(sd, level, optname, optval, optlen);              
    1873                    ;----------------------------------------------------------------------
    1874 00000044 88B8              LDRH      A1, [V4, #4]          ; [DPU_V7M3_PIPE] |257|  ; [ORIG 16-BIT INS]
    1875 00000046 9000              STR       A1, [SP, #0]          ; [DPU_V7M3_PIPE] |257|  ; [ORIG 16-BIT INS]
    1876 00000048 101AF9BD          LDRSH     A2, [SP, #26]         ; [DPU_V7M3_PIPE] |257|  ; [KEEP 32-BIT INS]
    1877 0000004c 201CF9BD          LDRSH     A3, [SP, #28]         ; [DPU_V7M3_PIPE] |257|  ; [KEEP 32-BIT INS]
    1878 00000050 683B              LDR       A4, [V4, #0]          ; [DPU_V7M3_PIPE] |257|  ; [ORIG 16-BIT INS]
    1879 00000052 0018F9BD          LDRSH     A1, [SP, #24]         ; [DPU_V7M3_PIPE] |257|  ; [KEEP 32-BIT INS]
    1880                    $C$DW$207       .dwtag  DW_TAG_TI_branch
    1881                            .dwattr $C$DW$207, DW_AT_low_pc(0x00)
    1882                            .dwattr $C$DW$207, DW_AT_name("sl_SetSockOpt")
    1883                            .dwattr $C$DW$207, DW_AT_TI_call
    1884                    
    1885 00000056 FFFEF7FF!         BL        sl_SetSockOpt         ; [DPU_V7M3_PIPE] |257|  ; [KEEP 32-BIT INS]
    1886                            ; CALL OCCURS {sl_SetSockOpt }   ; [] |257| 
    1887                            .dwpsn  file "/vagrant/Q1_eng_19.3.20/sdk_root/source/ti/drivers/net/wifi/slnetif/slnetifwifi.
    1888 0000005a B008              ADD       SP, SP, #32           ; [DPU_V7M3_PIPE]  ; [ORIG 16-BIT INS]
    1889                            .dwcfi  cfa_offset, 8
    1890                    $C$DW$208       .dwtag  DW_TAG_TI_branch
    1891                            .dwattr $C$DW$208, DW_AT_low_pc(0x00)
    1892                            .dwattr $C$DW$208, DW_AT_TI_return
    1893                    
    1894 0000005c BD80              POP       {V4, PC}              ; [DPU_V7M3_PIPE]  ; [ORIG 16-BIT INS]
    1895                            .dwcfi  cfa_offset, 0
    1896                            .dwcfi  restore_reg, 7
    1897                            ; BRANCH OCCURS                  ; [] 
    1898                            .dwattr $C$DW$194, DW_AT_TI_end_file("/vagrant/Q1_eng_19.3.20/sdk_root/source/ti/drivers/net/w
    1899                            .dwattr $C$DW$194, DW_AT_TI_end_line(0x102)
    1900                            .dwattr $C$DW$194, DW_AT_TI_end_column(0x01)
    1901                            .dwendentry
    1902                            .dwendtag $C$DW$194
    1903                    
    1904 00000000                   .sect   ".text:SlNetIfWifi_getSockOpt"
    1905                            .clink
    1906                            .thumbfunc SlNetIfWifi_getSockOpt
    1907 00000000                   .thumb
    1908                            .global SlNetIfWifi_getSockOpt
    1909                    
    1910                    $C$DW$209       .dwtag  DW_TAG_subprogram
    1911                            .dwattr $C$DW$209, DW_AT_name("SlNetIfWifi_getSockOpt")
    1912                            .dwattr $C$DW$209, DW_AT_low_pc(SlNetIfWifi_getSockOpt)
    1913                            .dwattr $C$DW$209, DW_AT_high_pc(0x00)
    1914                            .dwattr $C$DW$209, DW_AT_TI_symbol_name("SlNetIfWifi_getSockOpt")
    1915                            .dwattr $C$DW$209, DW_AT_external
    1916                            .dwattr $C$DW$209, DW_AT_type(*$C$DW$T$338)
    1917                            .dwattr $C$DW$209, DW_AT_TI_begin_file("/vagrant/Q1_eng_19.3.20/sdk_root/source/ti/drivers/net
    1918                            .dwattr $C$DW$209, DW_AT_TI_begin_line(0x10a)
    1919                            .dwattr $C$DW$209, DW_AT_TI_begin_column(0x09)
    1920                            .dwattr $C$DW$209, DW_AT_decl_file("/vagrant/Q1_eng_19.3.20/sdk_root/source/ti/drivers/net/wif
    1921                            .dwattr $C$DW$209, DW_AT_decl_line(0x10a)
    1922                            .dwattr $C$DW$209, DW_AT_decl_column(0x09)
    1923                            .dwattr $C$DW$209, DW_AT_TI_max_frame_size(0x28)
    1924                            .dwpsn  file "/vagrant/Q1_eng_19.3.20/sdk_root/source/ti/drivers/net/wifi/slnetif/slnetifwifi.
    1925                    
TI ARM Assembler Unix v20.2.0 Thu Mar 19 13:13:13 2020

Copyright (c) 1996-2018 Texas Instruments Incorporated
slnetifwifi.asm                                                      PAGE   36

    1926                            .dwfde $C$DW$CIE, SlNetIfWifi_getSockOpt
    1927                    $C$DW$210       .dwtag  DW_TAG_formal_parameter
    1928                            .dwattr $C$DW$210, DW_AT_name("sd")
    1929                            .dwattr $C$DW$210, DW_AT_TI_symbol_name("sd")
    1930                            .dwattr $C$DW$210, DW_AT_type(*$C$DW$T$10)
    1931                            .dwattr $C$DW$210, DW_AT_location[DW_OP_reg0]
    1932                    
    1933                    $C$DW$211       .dwtag  DW_TAG_formal_parameter
    1934                            .dwattr $C$DW$211, DW_AT_name("sdContext")
    1935                            .dwattr $C$DW$211, DW_AT_TI_symbol_name("sdContext")
    1936                            .dwattr $C$DW$211, DW_AT_type(*$C$DW$T$3)
    1937                            .dwattr $C$DW$211, DW_AT_location[DW_OP_reg1]
    1938                    
    1939                    $C$DW$212       .dwtag  DW_TAG_formal_parameter
    1940                            .dwattr $C$DW$212, DW_AT_name("level")
    1941                            .dwattr $C$DW$212, DW_AT_TI_symbol_name("level")
    1942                            .dwattr $C$DW$212, DW_AT_type(*$C$DW$T$10)
    1943                            .dwattr $C$DW$212, DW_AT_location[DW_OP_reg2]
    1944                    
    1945                    $C$DW$213       .dwtag  DW_TAG_formal_parameter
    1946                            .dwattr $C$DW$213, DW_AT_name("optname")
    1947                            .dwattr $C$DW$213, DW_AT_TI_symbol_name("optname")
    1948                            .dwattr $C$DW$213, DW_AT_type(*$C$DW$T$10)
    1949                            .dwattr $C$DW$213, DW_AT_location[DW_OP_reg3]
    1950                    
    1951                    $C$DW$214       .dwtag  DW_TAG_formal_parameter
    1952                            .dwattr $C$DW$214, DW_AT_name("optval")
    1953                            .dwattr $C$DW$214, DW_AT_TI_symbol_name("optval")
    1954                            .dwattr $C$DW$214, DW_AT_type(*$C$DW$T$3)
    1955                            .dwattr $C$DW$214, DW_AT_location[DW_OP_breg13 40]
    1956                    
    1957                    $C$DW$215       .dwtag  DW_TAG_formal_parameter
    1958                            .dwattr $C$DW$215, DW_AT_name("optlen")
    1959                            .dwattr $C$DW$215, DW_AT_TI_symbol_name("optlen")
    1960                            .dwattr $C$DW$215, DW_AT_type(*$C$DW$T$346)
    1961                            .dwattr $C$DW$215, DW_AT_location[DW_OP_breg13 44]
    1962                    
    1963                    ;----------------------------------------------------------------------
    1964                    ; 266 | int32_t SlNetIfWifi_getSockOpt(int16_t sd, void *sdContext, int16_t lev
    1965                    ;     | el, int16_t optname, void *optval, SlNetSocklen_t *optlen)             
    1966                    ;----------------------------------------------------------------------
    1967                    
    1968                    ;*****************************************************************************
    1969                    ;* FUNCTION NAME: SlNetIfWifi_getSockOpt                                     *
    1970                    ;*                                                                           *
    1971                    ;*   Regs Modified     : A1,A2,A3,A4,V9,SP,LR,SR                             *
    1972                    ;*   Regs Used         : A1,A2,A3,A4,V9,SP,LR,SR                             *
    1973                    ;*   Local Frame Size  : 4 Args + 32 Auto + 4 Save = 40 byte                 *
    1974                    ;*****************************************************************************
    1975 00000000           SlNetIfWifi_getSockOpt:
    1976                    ;* --------------------------------------------------------------------------*
    1977                            .dwcfi  cfa_offset, 0
    1978 00000000 B500              PUSH      {LR}                  ; [DPU_V7M3_PIPE]  ; [ORIG 16-BIT INS]
    1979                            .dwcfi  cfa_offset, 4
    1980                            .dwcfi  save_reg_to_mem, 14, -4
TI ARM Assembler Unix v20.2.0 Thu Mar 19 13:13:13 2020

Copyright (c) 1996-2018 Texas Instruments Incorporated
slnetifwifi.asm                                                      PAGE   37

    1981 00000002 0D24F1AD          SUB       SP, SP, #36           ; [DPU_V7M3_PIPE]  ; [KEEP 32-BIT INS]
    1982                            .dwcfi  cfa_offset, 40
    1983                    $C$DW$216       .dwtag  DW_TAG_variable
    1984                            .dwattr $C$DW$216, DW_AT_name("tv")
    1985                            .dwattr $C$DW$216, DW_AT_TI_symbol_name("tv")
    1986                            .dwattr $C$DW$216, DW_AT_type(*$C$DW$T$709)
    1987                            .dwattr $C$DW$216, DW_AT_location[DW_OP_breg13 8]
    1988                    
    1989                    $C$DW$217       .dwtag  DW_TAG_variable
    1990                            .dwattr $C$DW$217, DW_AT_name("sdContext")
    1991                            .dwattr $C$DW$217, DW_AT_TI_symbol_name("sdContext")
    1992                            .dwattr $C$DW$217, DW_AT_type(*$C$DW$T$3)
    1993                            .dwattr $C$DW$217, DW_AT_location[DW_OP_breg13 16]
    1994                    
    1995                    $C$DW$218       .dwtag  DW_TAG_variable
    1996                            .dwattr $C$DW$218, DW_AT_name("status")
    1997                            .dwattr $C$DW$218, DW_AT_TI_symbol_name("status")
    1998                            .dwattr $C$DW$218, DW_AT_type(*$C$DW$T$338)
    1999                            .dwattr $C$DW$218, DW_AT_location[DW_OP_breg13 20]
    2000                    
    2001                    $C$DW$219       .dwtag  DW_TAG_variable
    2002                            .dwattr $C$DW$219, DW_AT_name("slNetSockTimeVal")
    2003                            .dwattr $C$DW$219, DW_AT_TI_symbol_name("slNetSockTimeVal")
    2004                            .dwattr $C$DW$219, DW_AT_type(*$C$DW$T$360)
    2005                            .dwattr $C$DW$219, DW_AT_location[DW_OP_breg13 24]
    2006                    
    2007                    $C$DW$220       .dwtag  DW_TAG_variable
    2008                            .dwattr $C$DW$220, DW_AT_name("sd")
    2009                            .dwattr $C$DW$220, DW_AT_TI_symbol_name("sd")
    2010                            .dwattr $C$DW$220, DW_AT_type(*$C$DW$T$333)
    2011                            .dwattr $C$DW$220, DW_AT_location[DW_OP_breg13 28]
    2012                    
    2013                    $C$DW$221       .dwtag  DW_TAG_variable
    2014                            .dwattr $C$DW$221, DW_AT_name("level")
    2015                            .dwattr $C$DW$221, DW_AT_TI_symbol_name("level")
    2016                            .dwattr $C$DW$221, DW_AT_type(*$C$DW$T$333)
    2017                            .dwattr $C$DW$221, DW_AT_location[DW_OP_breg13 30]
    2018                    
    2019                    $C$DW$222       .dwtag  DW_TAG_variable
    2020                            .dwattr $C$DW$222, DW_AT_name("optname")
    2021                            .dwattr $C$DW$222, DW_AT_TI_symbol_name("optname")
    2022                            .dwattr $C$DW$222, DW_AT_type(*$C$DW$T$333)
    2023                            .dwattr $C$DW$222, DW_AT_location[DW_OP_breg13 32]
    2024                    
    2025                    $C$DW$223       .dwtag  DW_TAG_variable
    2026                            .dwattr $C$DW$223, DW_AT_name("len")
    2027                            .dwattr $C$DW$223, DW_AT_TI_symbol_name("len")
    2028                            .dwattr $C$DW$223, DW_AT_type(*$C$DW$T$754)
    2029                            .dwattr $C$DW$223, DW_AT_location[DW_OP_breg13 34]
    2030                    
    2031                    ;----------------------------------------------------------------------
    2032                    ; 268 | SlSocklen_t len;                                                       
    2033                    ;----------------------------------------------------------------------
    2034 00000006 3020F8AD          STRH      A4, [SP, #32]         ; [DPU_V7M3_PIPE] |267|  ; [KEEP 32-BIT INS]
    2035 0000000a 201EF8AD          STRH      A3, [SP, #30]         ; [DPU_V7M3_PIPE] |267|  ; [KEEP 32-BIT INS]
TI ARM Assembler Unix v20.2.0 Thu Mar 19 13:13:13 2020

Copyright (c) 1996-2018 Texas Instruments Incorporated
slnetifwifi.asm                                                      PAGE   38

    2036 0000000e 9104              STR       A2, [SP, #16]         ; [DPU_V7M3_PIPE] |267|  ; [ORIG 16-BIT INS]
    2037 00000010 001CF8AD          STRH      A1, [SP, #28]         ; [DPU_V7M3_PIPE] |267|  ; [KEEP 32-BIT INS]
    2038                            .dwpsn  file "/vagrant/Q1_eng_19.3.20/sdk_root/source/ti/drivers/net/wifi/slnetif/slnetifwifi.
    2039                    ;----------------------------------------------------------------------
    2040                    ; 269 | int32_t status = 0;                                                    
    2041                    ; 270 | SlNetSock_Timeval_t *slNetSockTimeVal;                                 
    2042                    ; 271 | SlTimeval_t tv;                                                        
    2043                    ;----------------------------------------------------------------------
    2044 00000014 2000              MOVS      A1, #0                ; [DPU_V7M3_PIPE] |269|  ; [ORIG 16-BIT INS]
    2045 00000016 9005              STR       A1, [SP, #20]         ; [DPU_V7M3_PIPE] |269|  ; [ORIG 16-BIT INS]
    2046                            .dwpsn  file "/vagrant/Q1_eng_19.3.20/sdk_root/source/ti/drivers/net/wifi/slnetif/slnetifwifi.
    2047                    ;----------------------------------------------------------------------
    2048                    ; 273 | switch (level)                                                         
    2049                    ; 275 |     case SLNETSOCK_LVL_SOCKET:                                         
    2050                    ; 277 |         switch (optname)                                               
    2051                    ; 279 |             case SLNETSOCK_OPSOCK_RCV_TIMEO:                           
    2052                    ;----------------------------------------------------------------------
    2053 00000018 E040              B         ||$C$L10||            ; [DPU_V7M3_PIPE] |273|  ; [ORIG 16-BIT INS]
    2054                            ; BRANCH OCCURS {||$C$L10||}     ; [] |273| 
    2055                    ;* --------------------------------------------------------------------------*
    2056                    ;* --------------------------------------------------------------------------*
    2057 0000001a           ||$C$L5||:    
    2058                            .dwpsn  file "/vagrant/Q1_eng_19.3.20/sdk_root/source/ti/drivers/net/wifi/slnetif/slnetifwifi.
    2059                    ;----------------------------------------------------------------------
    2060                    ; 281 | if (*optlen < sizeof(SlNetSock_Timeval_t))                             
    2061                    ;----------------------------------------------------------------------
    2062 0000001a 980B              LDR       A1, [SP, #44]         ; [DPU_V7M3_PIPE] |281|  ; [ORIG 16-BIT INS]
    2063 0000001c 8800              LDRH      A1, [A1, #0]          ; [DPU_V7M3_PIPE] |281|  ; [ORIG 16-BIT INS]
    2064 0000001e 2808              CMP       A1, #8                ; [DPU_V7M3_PIPE] |281|  ; [ORIG 16-BIT INS]
    2065 00000020 D201              BCS       ||$C$L6||             ; [DPU_V7M3_PIPE] |281|  ; [ORIG 16-BIT INS]
    2066                            ; BRANCHCC OCCURS {||$C$L6||}    ; [] |281| 
    2067                    ;* --------------------------------------------------------------------------*
    2068                            .dwpsn  file "/vagrant/Q1_eng_19.3.20/sdk_root/source/ti/drivers/net/wifi/slnetif/slnetifwifi.
    2069                    ;----------------------------------------------------------------------
    2070                    ; 283 | return (SLNETERR_RET_CODE_INVALID_INPUT);                              
    2071                    ;----------------------------------------------------------------------
    2072 00000022 4822              LDR       A1, $C$CON3           ; [DPU_V7M3_PIPE] |283|  ; [ORIG 16-BIT INS]
    2073 00000024 E040              B         ||$C$L12||            ; [DPU_V7M3_PIPE] |283|  ; [ORIG 16-BIT INS]
    2074                            ; BRANCH OCCURS {||$C$L12||}     ; [] |283| 
    2075                    ;* --------------------------------------------------------------------------*
    2076 00000026           ||$C$L6||:    
    2077                            .dwpsn  file "/vagrant/Q1_eng_19.3.20/sdk_root/source/ti/drivers/net/wifi/slnetif/slnetifwifi.
    2078                    ;----------------------------------------------------------------------
    2079                    ; 285 | len = sizeof(SlTimeval_t);                                             
    2080                    ;----------------------------------------------------------------------
    2081 00000026 2008              MOVS      A1, #8                ; [DPU_V7M3_PIPE] |285|  ; [ORIG 16-BIT INS]
    2082 00000028 0022F8AD          STRH      A1, [SP, #34]         ; [DPU_V7M3_PIPE] |285|  ; [KEEP 32-BIT INS]
    2083                            .dwpsn  file "/vagrant/Q1_eng_19.3.20/sdk_root/source/ti/drivers/net/wifi/slnetif/slnetifwifi.
    2084                    ;----------------------------------------------------------------------
    2085                    ; 286 | status =                                                               
    2086                    ; 287 |     sl_GetSockOpt(sd, level, optname, (void *)&tv, &len);              
    2087                    ;----------------------------------------------------------------------
    2088 0000002c 0022F10D          ADD       A1, SP, #34           ; [DPU_V7M3_PIPE] |286|  ; [KEEP 32-BIT INS]
    2089 00000030 9000              STR       A1, [SP, #0]          ; [DPU_V7M3_PIPE] |286|  ; [ORIG 16-BIT INS]
    2090 00000032 2020F9BD          LDRSH     A3, [SP, #32]         ; [DPU_V7M3_PIPE] |286|  ; [KEEP 32-BIT INS]
TI ARM Assembler Unix v20.2.0 Thu Mar 19 13:13:13 2020

Copyright (c) 1996-2018 Texas Instruments Incorporated
slnetifwifi.asm                                                      PAGE   39

    2091 00000036 101EF9BD          LDRSH     A2, [SP, #30]         ; [DPU_V7M3_PIPE] |286|  ; [KEEP 32-BIT INS]
    2092 0000003a 001CF9BD          LDRSH     A1, [SP, #28]         ; [DPU_V7M3_PIPE] |286|  ; [KEEP 32-BIT INS]
    2093 0000003e AB02              ADD       A4, SP, #8            ; [DPU_V7M3_PIPE] |286|  ; [ORIG 16-BIT INS]
    2094                    $C$DW$224       .dwtag  DW_TAG_TI_branch
    2095                            .dwattr $C$DW$224, DW_AT_low_pc(0x00)
    2096                            .dwattr $C$DW$224, DW_AT_name("sl_GetSockOpt")
    2097                            .dwattr $C$DW$224, DW_AT_TI_call
    2098                    
    2099 00000040 FFFEF7FF!         BL        sl_GetSockOpt         ; [DPU_V7M3_PIPE] |286|  ; [KEEP 32-BIT INS]
    2100                            ; CALL OCCURS {sl_GetSockOpt }   ; [] |286| 
    2101 00000044 9005              STR       A1, [SP, #20]         ; [DPU_V7M3_PIPE] |286|  ; [ORIG 16-BIT INS]
    2102                            .dwpsn  file "/vagrant/Q1_eng_19.3.20/sdk_root/source/ti/drivers/net/wifi/slnetif/slnetifwifi.
    2103                    ;----------------------------------------------------------------------
    2104                    ; 289 | slNetSockTimeVal = (SlNetSock_Timeval_t *)optval;                      
    2105                    ;----------------------------------------------------------------------
    2106 00000046 980A              LDR       A1, [SP, #40]         ; [DPU_V7M3_PIPE] |289|  ; [ORIG 16-BIT INS]
    2107 00000048 9006              STR       A1, [SP, #24]         ; [DPU_V7M3_PIPE] |289|  ; [ORIG 16-BIT INS]
    2108                            .dwpsn  file "/vagrant/Q1_eng_19.3.20/sdk_root/source/ti/drivers/net/wifi/slnetif/slnetifwifi.
    2109                    ;----------------------------------------------------------------------
    2110                    ; 290 | slNetSockTimeVal->tv_sec = tv.tv_sec;                                  
    2111                    ;----------------------------------------------------------------------
    2112 0000004a 9802              LDR       A1, [SP, #8]          ; [DPU_V7M3_PIPE] |290|  ; [ORIG 16-BIT INS]
    2113 0000004c 9906              LDR       A2, [SP, #24]         ; [DPU_V7M3_PIPE] |290|  ; [ORIG 16-BIT INS]
    2114 0000004e 6008              STR       A1, [A2, #0]          ; [DPU_V7M3_PIPE] |290|  ; [ORIG 16-BIT INS]
    2115                            .dwpsn  file "/vagrant/Q1_eng_19.3.20/sdk_root/source/ti/drivers/net/wifi/slnetif/slnetifwifi.
    2116                    ;----------------------------------------------------------------------
    2117                    ; 291 | slNetSockTimeVal->tv_usec = tv.tv_usec;                                
    2118                    ;----------------------------------------------------------------------
    2119 00000050 9803              LDR       A1, [SP, #12]         ; [DPU_V7M3_PIPE] |291|  ; [ORIG 16-BIT INS]
    2120 00000052 9906              LDR       A2, [SP, #24]         ; [DPU_V7M3_PIPE] |291|  ; [ORIG 16-BIT INS]
    2121 00000054 6048              STR       A1, [A2, #4]          ; [DPU_V7M3_PIPE] |291|  ; [ORIG 16-BIT INS]
    2122                            .dwpsn  file "/vagrant/Q1_eng_19.3.20/sdk_root/source/ti/drivers/net/wifi/slnetif/slnetifwifi.
    2123                    ;----------------------------------------------------------------------
    2124                    ; 292 | *optlen = sizeof(SlNetSock_Timeval_t);                                 
    2125                    ;----------------------------------------------------------------------
    2126 00000056 980B              LDR       A1, [SP, #44]         ; [DPU_V7M3_PIPE] |292|  ; [ORIG 16-BIT INS]
    2127 00000058 2108              MOVS      A2, #8                ; [DPU_V7M3_PIPE] |292|  ; [ORIG 16-BIT INS]
    2128 0000005a 8001              STRH      A2, [A1, #0]          ; [DPU_V7M3_PIPE] |292|  ; [ORIG 16-BIT INS]
    2129                            .dwpsn  file "/vagrant/Q1_eng_19.3.20/sdk_root/source/ti/drivers/net/wifi/slnetif/slnetifwifi.
    2130                    ;----------------------------------------------------------------------
    2131                    ; 293 | break;                                                                 
    2132                    ; 296 | default:                                                               
    2133                    ;----------------------------------------------------------------------
    2134 0000005c E023              B         ||$C$L11||            ; [DPU_V7M3_PIPE] |293|  ; [ORIG 16-BIT INS]
    2135                            ; BRANCH OCCURS {||$C$L11||}     ; [] |293| 
    2136                    ;* --------------------------------------------------------------------------*
    2137 0000005e           ||$C$L7||:    
    2138                            .dwpsn  file "/vagrant/Q1_eng_19.3.20/sdk_root/source/ti/drivers/net/wifi/slnetif/slnetifwifi.
    2139                    ;----------------------------------------------------------------------
    2140                    ; 299 | status = sl_GetSockOpt(sd, level, optname, optval, optlen);            
    2141                    ;----------------------------------------------------------------------
    2142 0000005e 980B              LDR       A1, [SP, #44]         ; [DPU_V7M3_PIPE] |299|  ; [ORIG 16-BIT INS]
    2143 00000060 9000              STR       A1, [SP, #0]          ; [DPU_V7M3_PIPE] |299|  ; [ORIG 16-BIT INS]
    2144 00000062 2020F9BD          LDRSH     A3, [SP, #32]         ; [DPU_V7M3_PIPE] |299|  ; [KEEP 32-BIT INS]
    2145 00000066 9B0A              LDR       A4, [SP, #40]         ; [DPU_V7M3_PIPE] |299|  ; [ORIG 16-BIT INS]
TI ARM Assembler Unix v20.2.0 Thu Mar 19 13:13:13 2020

Copyright (c) 1996-2018 Texas Instruments Incorporated
slnetifwifi.asm                                                      PAGE   40

    2146 00000068 101EF9BD          LDRSH     A2, [SP, #30]         ; [DPU_V7M3_PIPE] |299|  ; [KEEP 32-BIT INS]
    2147 0000006c 001CF9BD          LDRSH     A1, [SP, #28]         ; [DPU_V7M3_PIPE] |299|  ; [KEEP 32-BIT INS]
    2148                    $C$DW$225       .dwtag  DW_TAG_TI_branch
    2149                            .dwattr $C$DW$225, DW_AT_low_pc(0x00)
    2150                            .dwattr $C$DW$225, DW_AT_name("sl_GetSockOpt")
    2151                            .dwattr $C$DW$225, DW_AT_TI_call
    2152                    
    2153 00000070 FFFEF7FF!         BL        sl_GetSockOpt         ; [DPU_V7M3_PIPE] |299|  ; [KEEP 32-BIT INS]
    2154                            ; CALL OCCURS {sl_GetSockOpt }   ; [] |299| 
    2155 00000074 9005              STR       A1, [SP, #20]         ; [DPU_V7M3_PIPE] |299|  ; [ORIG 16-BIT INS]
    2156                            .dwpsn  file "/vagrant/Q1_eng_19.3.20/sdk_root/source/ti/drivers/net/wifi/slnetif/slnetifwifi.
    2157                    ;----------------------------------------------------------------------
    2158                    ; 300 | break;                                                                 
    2159                    ; 304 | break;                                                                 
    2160                    ; 306 | default:                                                               
    2161                    ;----------------------------------------------------------------------
    2162 00000076 E016              B         ||$C$L11||            ; [DPU_V7M3_PIPE] |300|  ; [ORIG 16-BIT INS]
    2163                            ; BRANCH OCCURS {||$C$L11||}     ; [] |300| 
    2164                    ;* --------------------------------------------------------------------------*
    2165                    ;* --------------------------------------------------------------------------*
    2166 00000078           ||$C$L8||:    
    2167                            .dwpsn  file "/vagrant/Q1_eng_19.3.20/sdk_root/source/ti/drivers/net/wifi/slnetif/slnetifwifi.
    2168 00000078 0020F9BD          LDRSH     A1, [SP, #32]         ; [DPU_V7M3_PIPE] |277|  ; [KEEP 32-BIT INS]
    2169 0000007c 3814              SUBS      A1, A1, #20           ; [DPU_V7M3_PIPE] |277|  ; [ORIG 16-BIT INS]
    2170 0000007e D0CC              BEQ       ||$C$L5||             ; [DPU_V7M3_PIPE] |277|  ; [ORIG 16-BIT INS]
    2171                            ; BRANCHCC OCCURS {||$C$L5||}    ; [] |277| 
    2172                    ;* --------------------------------------------------------------------------*
    2173 00000080 E7ED              B         ||$C$L7||             ; [DPU_V7M3_PIPE] |277|  ; [ORIG 16-BIT INS]
    2174                            ; BRANCH OCCURS {||$C$L7||}      ; [] |277| 
    2175                    ;* --------------------------------------------------------------------------*
    2176                    ;* --------------------------------------------------------------------------*
    2177 00000082           ||$C$L9||:    
    2178                            .dwpsn  file "/vagrant/Q1_eng_19.3.20/sdk_root/source/ti/drivers/net/wifi/slnetif/slnetifwifi.
    2179                    ;----------------------------------------------------------------------
    2180                    ; 309 | status = sl_GetSockOpt(sd, level, optname, optval, optlen);            
    2181                    ;----------------------------------------------------------------------
    2182 00000082 980B              LDR       A1, [SP, #44]         ; [DPU_V7M3_PIPE] |309|  ; [ORIG 16-BIT INS]
    2183 00000084 9000              STR       A1, [SP, #0]          ; [DPU_V7M3_PIPE] |309|  ; [ORIG 16-BIT INS]
    2184 00000086 2020F9BD          LDRSH     A3, [SP, #32]         ; [DPU_V7M3_PIPE] |309|  ; [KEEP 32-BIT INS]
    2185 0000008a 9B0A              LDR       A4, [SP, #40]         ; [DPU_V7M3_PIPE] |309|  ; [ORIG 16-BIT INS]
    2186 0000008c 101EF9BD          LDRSH     A2, [SP, #30]         ; [DPU_V7M3_PIPE] |309|  ; [KEEP 32-BIT INS]
    2187 00000090 001CF9BD          LDRSH     A1, [SP, #28]         ; [DPU_V7M3_PIPE] |309|  ; [KEEP 32-BIT INS]
    2188                    $C$DW$226       .dwtag  DW_TAG_TI_branch
    2189                            .dwattr $C$DW$226, DW_AT_low_pc(0x00)
    2190                            .dwattr $C$DW$226, DW_AT_name("sl_GetSockOpt")
    2191                            .dwattr $C$DW$226, DW_AT_TI_call
    2192                    
    2193 00000094 FFFEF7FF!         BL        sl_GetSockOpt         ; [DPU_V7M3_PIPE] |309|  ; [KEEP 32-BIT INS]
    2194                            ; CALL OCCURS {sl_GetSockOpt }   ; [] |309| 
    2195 00000098 9005              STR       A1, [SP, #20]         ; [DPU_V7M3_PIPE] |309|  ; [ORIG 16-BIT INS]
    2196                            .dwpsn  file "/vagrant/Q1_eng_19.3.20/sdk_root/source/ti/drivers/net/wifi/slnetif/slnetifwifi.
    2197                    ;----------------------------------------------------------------------
    2198                    ; 310 | break;                                                                 
    2199                    ;----------------------------------------------------------------------
    2200 0000009a E004              B         ||$C$L11||            ; [DPU_V7M3_PIPE] |310|  ; [ORIG 16-BIT INS]
TI ARM Assembler Unix v20.2.0 Thu Mar 19 13:13:13 2020

Copyright (c) 1996-2018 Texas Instruments Incorporated
slnetifwifi.asm                                                      PAGE   41

    2201                            ; BRANCH OCCURS {||$C$L11||}     ; [] |310| 
    2202                    ;* --------------------------------------------------------------------------*
    2203                    ;* --------------------------------------------------------------------------*
    2204 0000009c           ||$C$L10||:    
    2205                            .dwpsn  file "/vagrant/Q1_eng_19.3.20/sdk_root/source/ti/drivers/net/wifi/slnetif/slnetifwifi.
    2206 0000009c 001EF9BD          LDRSH     A1, [SP, #30]         ; [DPU_V7M3_PIPE] |273|  ; [KEEP 32-BIT INS]
    2207 000000a0 1E40              SUBS      A1, A1, #1            ; [DPU_V7M3_PIPE] |273|  ; [ORIG 16-BIT INS]
    2208 000000a2 D0E9              BEQ       ||$C$L8||             ; [DPU_V7M3_PIPE] |273|  ; [ORIG 16-BIT INS]
    2209                            ; BRANCHCC OCCURS {||$C$L8||}    ; [] |273| 
    2210                    ;* --------------------------------------------------------------------------*
    2211 000000a4 E7ED              B         ||$C$L9||             ; [DPU_V7M3_PIPE] |273|  ; [ORIG 16-BIT INS]
    2212                            ; BRANCH OCCURS {||$C$L9||}      ; [] |273| 
    2213                    ;* --------------------------------------------------------------------------*
    2214 000000a6           ||$C$L11||:    
    2215                            .dwpsn  file "/vagrant/Q1_eng_19.3.20/sdk_root/source/ti/drivers/net/wifi/slnetif/slnetifwifi.
    2216                    ;----------------------------------------------------------------------
    2217                    ; 314 | return (status);                                                       
    2218                    ;----------------------------------------------------------------------
    2219 000000a6 9805              LDR       A1, [SP, #20]         ; [DPU_V7M3_PIPE] |314|  ; [ORIG 16-BIT INS]
    2220                    ;* --------------------------------------------------------------------------*
    2221 000000a8           ||$C$L12||:    
    2222                            .dwpsn  file "/vagrant/Q1_eng_19.3.20/sdk_root/source/ti/drivers/net/wifi/slnetif/slnetifwifi.
    2223 000000a8 B009              ADD       SP, SP, #36           ; [DPU_V7M3_PIPE]  ; [ORIG 16-BIT INS]
    2224                            .dwcfi  cfa_offset, 4
    2225                    $C$DW$227       .dwtag  DW_TAG_TI_branch
    2226                            .dwattr $C$DW$227, DW_AT_low_pc(0x00)
    2227                            .dwattr $C$DW$227, DW_AT_TI_return
    2228                    
    2229 000000aa BD00              POP       {PC}                  ; [DPU_V7M3_PIPE]  ; [ORIG 16-BIT INS]
    2230                            .dwcfi  cfa_offset, 0
    2231                            ; BRANCH OCCURS                  ; [] 
    2232                            .dwattr $C$DW$209, DW_AT_TI_end_file("/vagrant/Q1_eng_19.3.20/sdk_root/source/ti/drivers/net/w
    2233                            .dwattr $C$DW$209, DW_AT_TI_end_line(0x13b)
    2234                            .dwattr $C$DW$209, DW_AT_TI_end_column(0x01)
    2235                            .dwendentry
    2236                            .dwendtag $C$DW$209
    2237                    
    2238 00000000                   .sect   ".text:SlNetIfWifi_recv"
    2239                            .clink
    2240                            .thumbfunc SlNetIfWifi_recv
    2241 00000000                   .thumb
    2242                            .global SlNetIfWifi_recv
    2243                    
    2244                    $C$DW$228       .dwtag  DW_TAG_subprogram
    2245                            .dwattr $C$DW$228, DW_AT_name("SlNetIfWifi_recv")
    2246                            .dwattr $C$DW$228, DW_AT_low_pc(SlNetIfWifi_recv)
    2247                            .dwattr $C$DW$228, DW_AT_high_pc(0x00)
    2248                            .dwattr $C$DW$228, DW_AT_TI_symbol_name("SlNetIfWifi_recv")
    2249                            .dwattr $C$DW$228, DW_AT_external
    2250                            .dwattr $C$DW$228, DW_AT_type(*$C$DW$T$338)
    2251                            .dwattr $C$DW$228, DW_AT_TI_begin_file("/vagrant/Q1_eng_19.3.20/sdk_root/source/ti/drivers/net
    2252                            .dwattr $C$DW$228, DW_AT_TI_begin_line(0x143)
    2253                            .dwattr $C$DW$228, DW_AT_TI_begin_column(0x09)
    2254                            .dwattr $C$DW$228, DW_AT_decl_file("/vagrant/Q1_eng_19.3.20/sdk_root/source/ti/drivers/net/wif
    2255                            .dwattr $C$DW$228, DW_AT_decl_line(0x143)
TI ARM Assembler Unix v20.2.0 Thu Mar 19 13:13:13 2020

Copyright (c) 1996-2018 Texas Instruments Incorporated
slnetifwifi.asm                                                      PAGE   42

    2256                            .dwattr $C$DW$228, DW_AT_decl_column(0x09)
    2257                            .dwattr $C$DW$228, DW_AT_TI_max_frame_size(0x18)
    2258                            .dwpsn  file "/vagrant/Q1_eng_19.3.20/sdk_root/source/ti/drivers/net/wifi/slnetif/slnetifwifi.
    2259                    
    2260                            .dwfde $C$DW$CIE, SlNetIfWifi_recv
    2261                    $C$DW$229       .dwtag  DW_TAG_formal_parameter
    2262                            .dwattr $C$DW$229, DW_AT_name("sd")
    2263                            .dwattr $C$DW$229, DW_AT_TI_symbol_name("sd")
    2264                            .dwattr $C$DW$229, DW_AT_type(*$C$DW$T$10)
    2265                            .dwattr $C$DW$229, DW_AT_location[DW_OP_reg0]
    2266                    
    2267                    $C$DW$230       .dwtag  DW_TAG_formal_parameter
    2268                            .dwattr $C$DW$230, DW_AT_name("sdContext")
    2269                            .dwattr $C$DW$230, DW_AT_TI_symbol_name("sdContext")
    2270                            .dwattr $C$DW$230, DW_AT_type(*$C$DW$T$3)
    2271                            .dwattr $C$DW$230, DW_AT_location[DW_OP_reg1]
    2272                    
    2273                    $C$DW$231       .dwtag  DW_TAG_formal_parameter
    2274                            .dwattr $C$DW$231, DW_AT_name("buf")
    2275                            .dwattr $C$DW$231, DW_AT_TI_symbol_name("buf")
    2276                            .dwattr $C$DW$231, DW_AT_type(*$C$DW$T$3)
    2277                            .dwattr $C$DW$231, DW_AT_location[DW_OP_reg2]
    2278                    
    2279                    $C$DW$232       .dwtag  DW_TAG_formal_parameter
    2280                            .dwattr $C$DW$232, DW_AT_name("len")
    2281                            .dwattr $C$DW$232, DW_AT_TI_symbol_name("len")
    2282                            .dwattr $C$DW$232, DW_AT_type(*$C$DW$T$32)
    2283                            .dwattr $C$DW$232, DW_AT_location[DW_OP_reg3]
    2284                    
    2285                    $C$DW$233       .dwtag  DW_TAG_formal_parameter
    2286                            .dwattr $C$DW$233, DW_AT_name("flags")
    2287                            .dwattr $C$DW$233, DW_AT_TI_symbol_name("flags")
    2288                            .dwattr $C$DW$233, DW_AT_type(*$C$DW$T$32)
    2289                            .dwattr $C$DW$233, DW_AT_location[DW_OP_breg13 24]
    2290                    
    2291                    ;----------------------------------------------------------------------
    2292                    ; 323 | int32_t SlNetIfWifi_recv(int16_t sd, void *sdContext, void *buf, uint32
    2293                    ;     | _t len, uint32_t flags)                                                
    2294                    ;----------------------------------------------------------------------
    2295                    
    2296                    ;*****************************************************************************
    2297                    ;* FUNCTION NAME: SlNetIfWifi_recv                                           *
    2298                    ;*                                                                           *
    2299                    ;*   Regs Modified     : A1,A2,A3,A4,V4,V9,SP,LR,SR                          *
    2300                    ;*   Regs Used         : A1,A2,A3,A4,V4,V9,SP,LR,SR                          *
    2301                    ;*   Local Frame Size  : 0 Args + 16 Auto + 8 Save = 24 byte                 *
    2302                    ;*****************************************************************************
    2303 00000000           SlNetIfWifi_recv:
    2304                    ;* --------------------------------------------------------------------------*
    2305                            .dwcfi  cfa_offset, 0
    2306 00000000 B58F              PUSH      {A1, A2, A3, A4, V4, LR} ; [DPU_V7M3_PIPE]  ; [ORIG 16-BIT INS]
    2307                            .dwcfi  cfa_offset, 24
    2308                            .dwcfi  save_reg_to_mem, 14, -4
    2309                            .dwcfi  save_reg_to_mem, 7, -8
    2310                            .dwcfi  save_reg_to_mem, 3, -12
TI ARM Assembler Unix v20.2.0 Thu Mar 19 13:13:13 2020

Copyright (c) 1996-2018 Texas Instruments Incorporated
slnetifwifi.asm                                                      PAGE   43

    2311                            .dwcfi  save_reg_to_mem, 2, -16
    2312                            .dwcfi  save_reg_to_mem, 1, -20
    2313                            .dwcfi  save_reg_to_mem, 0, -24
    2314 00000002 AF06              ADD       V4, SP, #24           ; [DPU_V7M3_PIPE]  ; [ORIG 16-BIT INS]
    2315                    $C$DW$234       .dwtag  DW_TAG_variable
    2316                            .dwattr $C$DW$234, DW_AT_name("sdContext")
    2317                            .dwattr $C$DW$234, DW_AT_TI_symbol_name("sdContext")
    2318                            .dwattr $C$DW$234, DW_AT_type(*$C$DW$T$3)
    2319                            .dwattr $C$DW$234, DW_AT_location[DW_OP_breg13 0]
    2320                    
    2321                    $C$DW$235       .dwtag  DW_TAG_variable
    2322                            .dwattr $C$DW$235, DW_AT_name("buf")
    2323                            .dwattr $C$DW$235, DW_AT_TI_symbol_name("buf")
    2324                            .dwattr $C$DW$235, DW_AT_type(*$C$DW$T$3)
    2325                            .dwattr $C$DW$235, DW_AT_location[DW_OP_breg13 4]
    2326                    
    2327                    $C$DW$236       .dwtag  DW_TAG_variable
    2328                            .dwattr $C$DW$236, DW_AT_name("len")
    2329                            .dwattr $C$DW$236, DW_AT_TI_symbol_name("len")
    2330                            .dwattr $C$DW$236, DW_AT_type(*$C$DW$T$32)
    2331                            .dwattr $C$DW$236, DW_AT_location[DW_OP_breg13 8]
    2332                    
    2333                    $C$DW$237       .dwtag  DW_TAG_variable
    2334                            .dwattr $C$DW$237, DW_AT_name("sd")
    2335                            .dwattr $C$DW$237, DW_AT_TI_symbol_name("sd")
    2336                            .dwattr $C$DW$237, DW_AT_type(*$C$DW$T$333)
    2337                            .dwattr $C$DW$237, DW_AT_location[DW_OP_breg13 12]
    2338                    
    2339 00000004 9302              STR       A4, [SP, #8]          ; [DPU_V7M3_PIPE] |324|  ; [ORIG 16-BIT INS]
    2340 00000006 9201              STR       A3, [SP, #4]          ; [DPU_V7M3_PIPE] |324|  ; [ORIG 16-BIT INS]
    2341 00000008 9100              STR       A2, [SP, #0]          ; [DPU_V7M3_PIPE] |324|  ; [ORIG 16-BIT INS]
    2342 0000000a 000CF8AD          STRH      A1, [SP, #12]         ; [DPU_V7M3_PIPE] |324|  ; [KEEP 32-BIT INS]
    2343                            .dwpsn  file "/vagrant/Q1_eng_19.3.20/sdk_root/source/ti/drivers/net/wifi/slnetif/slnetifwifi.
    2344                    ;----------------------------------------------------------------------
    2345                    ; 325 | DISABLE_SEC_BITS_FROM_INPUT_FLAGS(flags);                              
    2346                    ;----------------------------------------------------------------------
    2347 0000000e 6838              LDR       A1, [V4, #0]          ; [DPU_V7M3_PIPE] |325|  ; [ORIG 16-BIT INS]
    2348 00000010 407FF020          BIC       A1, A1, #-16777216    ; [DPU_V7M3_PIPE] |325|  ; [KEEP 32-BIT INS]
    2349 00000014 6038              STR       A1, [V4, #0]          ; [DPU_V7M3_PIPE] |325|  ; [ORIG 16-BIT INS]
    2350                            .dwpsn  file "/vagrant/Q1_eng_19.3.20/sdk_root/source/ti/drivers/net/wifi/slnetif/slnetifwifi.
    2351                    ;----------------------------------------------------------------------
    2352                    ; 326 | return sl_Recv(sd, buf, len, flags);                                   
    2353                    ;----------------------------------------------------------------------
    2354 00000016 000CF9BD          LDRSH     A1, [SP, #12]         ; [DPU_V7M3_PIPE] |326|  ; [KEEP 32-BIT INS]
    2355 0000001a 2008F9BD          LDRSH     A3, [SP, #8]          ; [DPU_V7M3_PIPE] |326|  ; [KEEP 32-BIT INS]
    2356 0000001e 3000F9B7          LDRSH     A4, [V4, #0]          ; [DPU_V7M3_PIPE] |326|  ; [KEEP 32-BIT INS]
    2357 00000022 9901              LDR       A2, [SP, #4]          ; [DPU_V7M3_PIPE] |326|  ; [ORIG 16-BIT INS]
    2358                    $C$DW$238       .dwtag  DW_TAG_TI_branch
    2359                            .dwattr $C$DW$238, DW_AT_low_pc(0x00)
    2360                            .dwattr $C$DW$238, DW_AT_name("sl_Recv")
    2361                            .dwattr $C$DW$238, DW_AT_TI_call
    2362                    
    2363 00000024 FFFEF7FF!         BL        sl_Recv               ; [DPU_V7M3_PIPE] |326|  ; [KEEP 32-BIT INS]
    2364                            ; CALL OCCURS {sl_Recv }         ; [] |326| 
    2365                            .dwpsn  file "/vagrant/Q1_eng_19.3.20/sdk_root/source/ti/drivers/net/wifi/slnetif/slnetifwifi.
TI ARM Assembler Unix v20.2.0 Thu Mar 19 13:13:13 2020

Copyright (c) 1996-2018 Texas Instruments Incorporated
slnetifwifi.asm                                                      PAGE   44

    2366 00000028 9000              STR       A1, [SP, #0]          ; [DPU_V7M3_PIPE]  ; [ORIG 16-BIT INS]
    2367                    $C$DW$239       .dwtag  DW_TAG_TI_branch
    2368                            .dwattr $C$DW$239, DW_AT_low_pc(0x00)
    2369                            .dwattr $C$DW$239, DW_AT_TI_return
    2370                    
    2371 0000002a BD8F              POP       {A1, A2, A3, A4, V4, PC} ; [DPU_V7M3_PIPE]  ; [ORIG 16-BIT INS]
    2372                            .dwcfi  cfa_offset, 0
    2373                            .dwcfi  restore_reg, 7
    2374                            .dwcfi  restore_reg, 3
    2375                            .dwcfi  restore_reg, 2
    2376                            .dwcfi  restore_reg, 1
    2377                            .dwcfi  restore_reg, 0
    2378                            ; BRANCH OCCURS                  ; [] 
    2379                            .dwattr $C$DW$228, DW_AT_TI_end_file("/vagrant/Q1_eng_19.3.20/sdk_root/source/ti/drivers/net/w
    2380                            .dwattr $C$DW$228, DW_AT_TI_end_line(0x147)
    2381                            .dwattr $C$DW$228, DW_AT_TI_end_column(0x01)
    2382                            .dwendentry
    2383                            .dwendtag $C$DW$228
    2384                    
    2385 00000000                   .sect   ".text:SlNetIfWifi_recvFrom"
    2386                            .clink
    2387                            .thumbfunc SlNetIfWifi_recvFrom
    2388 00000000                   .thumb
    2389                            .global SlNetIfWifi_recvFrom
    2390                    
    2391                    $C$DW$240       .dwtag  DW_TAG_subprogram
    2392                            .dwattr $C$DW$240, DW_AT_name("SlNetIfWifi_recvFrom")
    2393                            .dwattr $C$DW$240, DW_AT_low_pc(SlNetIfWifi_recvFrom)
    2394                            .dwattr $C$DW$240, DW_AT_high_pc(0x00)
    2395                            .dwattr $C$DW$240, DW_AT_TI_symbol_name("SlNetIfWifi_recvFrom")
    2396                            .dwattr $C$DW$240, DW_AT_external
    2397                            .dwattr $C$DW$240, DW_AT_type(*$C$DW$T$338)
    2398                            .dwattr $C$DW$240, DW_AT_TI_begin_file("/vagrant/Q1_eng_19.3.20/sdk_root/source/ti/drivers/net
    2399                            .dwattr $C$DW$240, DW_AT_TI_begin_line(0x14f)
    2400                            .dwattr $C$DW$240, DW_AT_TI_begin_column(0x09)
    2401                            .dwattr $C$DW$240, DW_AT_decl_file("/vagrant/Q1_eng_19.3.20/sdk_root/source/ti/drivers/net/wif
    2402                            .dwattr $C$DW$240, DW_AT_decl_line(0x14f)
    2403                            .dwattr $C$DW$240, DW_AT_decl_column(0x09)
    2404                            .dwattr $C$DW$240, DW_AT_TI_max_frame_size(0x20)
    2405                            .dwpsn  file "/vagrant/Q1_eng_19.3.20/sdk_root/source/ti/drivers/net/wifi/slnetif/slnetifwifi.
    2406                    
    2407                            .dwfde $C$DW$CIE, SlNetIfWifi_recvFrom
    2408                    $C$DW$241       .dwtag  DW_TAG_formal_parameter
    2409                            .dwattr $C$DW$241, DW_AT_name("sd")
    2410                            .dwattr $C$DW$241, DW_AT_TI_symbol_name("sd")
    2411                            .dwattr $C$DW$241, DW_AT_type(*$C$DW$T$10)
    2412                            .dwattr $C$DW$241, DW_AT_location[DW_OP_reg0]
    2413                    
    2414                    $C$DW$242       .dwtag  DW_TAG_formal_parameter
    2415                            .dwattr $C$DW$242, DW_AT_name("sdContext")
    2416                            .dwattr $C$DW$242, DW_AT_TI_symbol_name("sdContext")
    2417                            .dwattr $C$DW$242, DW_AT_type(*$C$DW$T$3)
    2418                            .dwattr $C$DW$242, DW_AT_location[DW_OP_reg1]
    2419                    
    2420                    $C$DW$243       .dwtag  DW_TAG_formal_parameter
TI ARM Assembler Unix v20.2.0 Thu Mar 19 13:13:13 2020

Copyright (c) 1996-2018 Texas Instruments Incorporated
slnetifwifi.asm                                                      PAGE   45

    2421                            .dwattr $C$DW$243, DW_AT_name("buf")
    2422                            .dwattr $C$DW$243, DW_AT_TI_symbol_name("buf")
    2423                            .dwattr $C$DW$243, DW_AT_type(*$C$DW$T$3)
    2424                            .dwattr $C$DW$243, DW_AT_location[DW_OP_reg2]
    2425                    
    2426                    $C$DW$244       .dwtag  DW_TAG_formal_parameter
    2427                            .dwattr $C$DW$244, DW_AT_name("len")
    2428                            .dwattr $C$DW$244, DW_AT_TI_symbol_name("len")
    2429                            .dwattr $C$DW$244, DW_AT_type(*$C$DW$T$32)
    2430                            .dwattr $C$DW$244, DW_AT_location[DW_OP_reg3]
    2431                    
    2432                    $C$DW$245       .dwtag  DW_TAG_formal_parameter
    2433                            .dwattr $C$DW$245, DW_AT_name("flags")
    2434                            .dwattr $C$DW$245, DW_AT_TI_symbol_name("flags")
    2435                            .dwattr $C$DW$245, DW_AT_type(*$C$DW$T$32)
    2436                            .dwattr $C$DW$245, DW_AT_location[DW_OP_breg13 32]
    2437                    
    2438                    $C$DW$246       .dwtag  DW_TAG_formal_parameter
    2439                            .dwattr $C$DW$246, DW_AT_name("from")
    2440                            .dwattr $C$DW$246, DW_AT_TI_symbol_name("from")
    2441                            .dwattr $C$DW$246, DW_AT_type(*$C$DW$T$344)
    2442                            .dwattr $C$DW$246, DW_AT_location[DW_OP_breg13 36]
    2443                    
    2444                    $C$DW$247       .dwtag  DW_TAG_formal_parameter
    2445                            .dwattr $C$DW$247, DW_AT_name("fromlen")
    2446                            .dwattr $C$DW$247, DW_AT_TI_symbol_name("fromlen")
    2447                            .dwattr $C$DW$247, DW_AT_type(*$C$DW$T$346)
    2448                            .dwattr $C$DW$247, DW_AT_location[DW_OP_breg13 40]
    2449                    
    2450                    ;----------------------------------------------------------------------
    2451                    ; 335 | int32_t SlNetIfWifi_recvFrom(int16_t sd, void *sdContext, void *buf, ui
    2452                    ;     | nt32_t len, uint32_t flags, SlNetSock_Addr_t *from, SlNetSocklen_t *fro
    2453                    ;     | mlen)                                                                  
    2454                    ;----------------------------------------------------------------------
    2455                    
    2456                    ;*****************************************************************************
    2457                    ;* FUNCTION NAME: SlNetIfWifi_recvFrom                                       *
    2458                    ;*                                                                           *
    2459                    ;*   Regs Modified     : A1,A2,A3,A4,V4,V9,SP,LR,SR                          *
    2460                    ;*   Regs Used         : A1,A2,A3,A4,V4,V9,SP,LR,SR                          *
    2461                    ;*   Local Frame Size  : 8 Args + 16 Auto + 8 Save = 32 byte                 *
    2462                    ;*****************************************************************************
    2463 00000000           SlNetIfWifi_recvFrom:
    2464                    ;* --------------------------------------------------------------------------*
    2465                            .dwcfi  cfa_offset, 0
    2466 00000000 B580              PUSH      {V4, LR}              ; [DPU_V7M3_PIPE]  ; [ORIG 16-BIT INS]
    2467                            .dwcfi  cfa_offset, 8
    2468                            .dwcfi  save_reg_to_mem, 14, -4
    2469                            .dwcfi  save_reg_to_mem, 7, -8
    2470 00000002 AF02              ADD       V4, SP, #8            ; [DPU_V7M3_PIPE]  ; [ORIG 16-BIT INS]
    2471 00000004 0D18F1AD          SUB       SP, SP, #24           ; [DPU_V7M3_PIPE]  ; [KEEP 32-BIT INS]
    2472                            .dwcfi  cfa_offset, 32
    2473                    $C$DW$248       .dwtag  DW_TAG_variable
    2474                            .dwattr $C$DW$248, DW_AT_name("sdContext")
    2475                            .dwattr $C$DW$248, DW_AT_TI_symbol_name("sdContext")
TI ARM Assembler Unix v20.2.0 Thu Mar 19 13:13:13 2020

Copyright (c) 1996-2018 Texas Instruments Incorporated
slnetifwifi.asm                                                      PAGE   46

    2476                            .dwattr $C$DW$248, DW_AT_type(*$C$DW$T$3)
    2477                            .dwattr $C$DW$248, DW_AT_location[DW_OP_breg13 8]
    2478                    
    2479                    $C$DW$249       .dwtag  DW_TAG_variable
    2480                            .dwattr $C$DW$249, DW_AT_name("buf")
    2481                            .dwattr $C$DW$249, DW_AT_TI_symbol_name("buf")
    2482                            .dwattr $C$DW$249, DW_AT_type(*$C$DW$T$3)
    2483                            .dwattr $C$DW$249, DW_AT_location[DW_OP_breg13 12]
    2484                    
    2485                    $C$DW$250       .dwtag  DW_TAG_variable
    2486                            .dwattr $C$DW$250, DW_AT_name("len")
    2487                            .dwattr $C$DW$250, DW_AT_TI_symbol_name("len")
    2488                            .dwattr $C$DW$250, DW_AT_type(*$C$DW$T$32)
    2489                            .dwattr $C$DW$250, DW_AT_location[DW_OP_breg13 16]
    2490                    
    2491                    $C$DW$251       .dwtag  DW_TAG_variable
    2492                            .dwattr $C$DW$251, DW_AT_name("sd")
    2493                            .dwattr $C$DW$251, DW_AT_TI_symbol_name("sd")
    2494                            .dwattr $C$DW$251, DW_AT_type(*$C$DW$T$333)
    2495                            .dwattr $C$DW$251, DW_AT_location[DW_OP_breg13 20]
    2496                    
    2497 00000008 9304              STR       A4, [SP, #16]         ; [DPU_V7M3_PIPE] |336|  ; [ORIG 16-BIT INS]
    2498 0000000a 9203              STR       A3, [SP, #12]         ; [DPU_V7M3_PIPE] |336|  ; [ORIG 16-BIT INS]
    2499 0000000c 9102              STR       A2, [SP, #8]          ; [DPU_V7M3_PIPE] |336|  ; [ORIG 16-BIT INS]
    2500 0000000e 0014F8AD          STRH      A1, [SP, #20]         ; [DPU_V7M3_PIPE] |336|  ; [KEEP 32-BIT INS]
    2501                            .dwpsn  file "/vagrant/Q1_eng_19.3.20/sdk_root/source/ti/drivers/net/wifi/slnetif/slnetifwifi.
    2502                    ;----------------------------------------------------------------------
    2503                    ; 337 | DISABLE_SEC_BITS_FROM_INPUT_FLAGS(flags);                              
    2504                    ;----------------------------------------------------------------------
    2505 00000012 6838              LDR       A1, [V4, #0]          ; [DPU_V7M3_PIPE] |337|  ; [ORIG 16-BIT INS]
    2506 00000014 407FF020          BIC       A1, A1, #-16777216    ; [DPU_V7M3_PIPE] |337|  ; [KEEP 32-BIT INS]
    2507 00000018 6038              STR       A1, [V4, #0]          ; [DPU_V7M3_PIPE] |337|  ; [ORIG 16-BIT INS]
    2508                            .dwpsn  file "/vagrant/Q1_eng_19.3.20/sdk_root/source/ti/drivers/net/wifi/slnetif/slnetifwifi.
    2509                    ;----------------------------------------------------------------------
    2510                    ; 338 | return sl_RecvFrom(sd, buf, len, flags, (SlSockAddr_t *)from, fromlen);
    2511                    ;----------------------------------------------------------------------
    2512 0000001a 6878              LDR       A1, [V4, #4]          ; [DPU_V7M3_PIPE] |338|  ; [ORIG 16-BIT INS]
    2513 0000001c 9000              STR       A1, [SP, #0]          ; [DPU_V7M3_PIPE] |338|  ; [ORIG 16-BIT INS]
    2514 0000001e 68B8              LDR       A1, [V4, #8]          ; [DPU_V7M3_PIPE] |338|  ; [ORIG 16-BIT INS]
    2515 00000020 9001              STR       A1, [SP, #4]          ; [DPU_V7M3_PIPE] |338|  ; [ORIG 16-BIT INS]
    2516 00000022 2010F9BD          LDRSH     A3, [SP, #16]         ; [DPU_V7M3_PIPE] |338|  ; [KEEP 32-BIT INS]
    2517 00000026 3000F9B7          LDRSH     A4, [V4, #0]          ; [DPU_V7M3_PIPE] |338|  ; [KEEP 32-BIT INS]
    2518 0000002a 9903              LDR       A2, [SP, #12]         ; [DPU_V7M3_PIPE] |338|  ; [ORIG 16-BIT INS]
    2519 0000002c 0014F9BD          LDRSH     A1, [SP, #20]         ; [DPU_V7M3_PIPE] |338|  ; [KEEP 32-BIT INS]
    2520                    $C$DW$252       .dwtag  DW_TAG_TI_branch
    2521                            .dwattr $C$DW$252, DW_AT_low_pc(0x00)
    2522                            .dwattr $C$DW$252, DW_AT_name("sl_RecvFrom")
    2523                            .dwattr $C$DW$252, DW_AT_TI_call
    2524                    
    2525 00000030 FFFEF7FF!         BL        sl_RecvFrom           ; [DPU_V7M3_PIPE] |338|  ; [KEEP 32-BIT INS]
    2526                            ; CALL OCCURS {sl_RecvFrom }     ; [] |338| 
    2527                            .dwpsn  file "/vagrant/Q1_eng_19.3.20/sdk_root/source/ti/drivers/net/wifi/slnetif/slnetifwifi.
    2528 00000034 B006              ADD       SP, SP, #24           ; [DPU_V7M3_PIPE]  ; [ORIG 16-BIT INS]
    2529                            .dwcfi  cfa_offset, 8
    2530                    $C$DW$253       .dwtag  DW_TAG_TI_branch
TI ARM Assembler Unix v20.2.0 Thu Mar 19 13:13:13 2020

Copyright (c) 1996-2018 Texas Instruments Incorporated
slnetifwifi.asm                                                      PAGE   47

    2531                            .dwattr $C$DW$253, DW_AT_low_pc(0x00)
    2532                            .dwattr $C$DW$253, DW_AT_TI_return
    2533                    
    2534 00000036 BD80              POP       {V4, PC}              ; [DPU_V7M3_PIPE]  ; [ORIG 16-BIT INS]
    2535                            .dwcfi  cfa_offset, 0
    2536                            .dwcfi  restore_reg, 7
    2537                            ; BRANCH OCCURS                  ; [] 
    2538                            .dwattr $C$DW$240, DW_AT_TI_end_file("/vagrant/Q1_eng_19.3.20/sdk_root/source/ti/drivers/net/w
    2539                            .dwattr $C$DW$240, DW_AT_TI_end_line(0x153)
    2540                            .dwattr $C$DW$240, DW_AT_TI_end_column(0x01)
    2541                            .dwendentry
    2542                            .dwendtag $C$DW$240
    2543                    
    2544 00000000                   .sect   ".text:SlNetIfWifi_send"
    2545                            .clink
    2546                            .thumbfunc SlNetIfWifi_send
    2547 00000000                   .thumb
    2548                            .global SlNetIfWifi_send
    2549                    
    2550                    $C$DW$254       .dwtag  DW_TAG_subprogram
    2551                            .dwattr $C$DW$254, DW_AT_name("SlNetIfWifi_send")
    2552                            .dwattr $C$DW$254, DW_AT_low_pc(SlNetIfWifi_send)
    2553                            .dwattr $C$DW$254, DW_AT_high_pc(0x00)
    2554                            .dwattr $C$DW$254, DW_AT_TI_symbol_name("SlNetIfWifi_send")
    2555                            .dwattr $C$DW$254, DW_AT_external
    2556                            .dwattr $C$DW$254, DW_AT_type(*$C$DW$T$338)
    2557                            .dwattr $C$DW$254, DW_AT_TI_begin_file("/vagrant/Q1_eng_19.3.20/sdk_root/source/ti/drivers/net
    2558                            .dwattr $C$DW$254, DW_AT_TI_begin_line(0x15b)
    2559                            .dwattr $C$DW$254, DW_AT_TI_begin_column(0x09)
    2560                            .dwattr $C$DW$254, DW_AT_decl_file("/vagrant/Q1_eng_19.3.20/sdk_root/source/ti/drivers/net/wif
    2561                            .dwattr $C$DW$254, DW_AT_decl_line(0x15b)
    2562                            .dwattr $C$DW$254, DW_AT_decl_column(0x09)
    2563                            .dwattr $C$DW$254, DW_AT_TI_max_frame_size(0x18)
    2564                            .dwpsn  file "/vagrant/Q1_eng_19.3.20/sdk_root/source/ti/drivers/net/wifi/slnetif/slnetifwifi.
    2565                    
    2566                            .dwfde $C$DW$CIE, SlNetIfWifi_send
    2567                    $C$DW$255       .dwtag  DW_TAG_formal_parameter
    2568                            .dwattr $C$DW$255, DW_AT_name("sd")
    2569                            .dwattr $C$DW$255, DW_AT_TI_symbol_name("sd")
    2570                            .dwattr $C$DW$255, DW_AT_type(*$C$DW$T$10)
    2571                            .dwattr $C$DW$255, DW_AT_location[DW_OP_reg0]
    2572                    
    2573                    $C$DW$256       .dwtag  DW_TAG_formal_parameter
    2574                            .dwattr $C$DW$256, DW_AT_name("sdContext")
    2575                            .dwattr $C$DW$256, DW_AT_TI_symbol_name("sdContext")
    2576                            .dwattr $C$DW$256, DW_AT_type(*$C$DW$T$3)
    2577                            .dwattr $C$DW$256, DW_AT_location[DW_OP_reg1]
    2578                    
    2579                    $C$DW$257       .dwtag  DW_TAG_formal_parameter
    2580                            .dwattr $C$DW$257, DW_AT_name("buf")
    2581                            .dwattr $C$DW$257, DW_AT_TI_symbol_name("buf")
    2582                            .dwattr $C$DW$257, DW_AT_type(*$C$DW$T$372)
    2583                            .dwattr $C$DW$257, DW_AT_location[DW_OP_reg2]
    2584                    
    2585                    $C$DW$258       .dwtag  DW_TAG_formal_parameter
TI ARM Assembler Unix v20.2.0 Thu Mar 19 13:13:13 2020

Copyright (c) 1996-2018 Texas Instruments Incorporated
slnetifwifi.asm                                                      PAGE   48

    2586                            .dwattr $C$DW$258, DW_AT_name("len")
    2587                            .dwattr $C$DW$258, DW_AT_TI_symbol_name("len")
    2588                            .dwattr $C$DW$258, DW_AT_type(*$C$DW$T$32)
    2589                            .dwattr $C$DW$258, DW_AT_location[DW_OP_reg3]
    2590                    
    2591                    $C$DW$259       .dwtag  DW_TAG_formal_parameter
    2592                            .dwattr $C$DW$259, DW_AT_name("flags")
    2593                            .dwattr $C$DW$259, DW_AT_TI_symbol_name("flags")
    2594                            .dwattr $C$DW$259, DW_AT_type(*$C$DW$T$32)
    2595                            .dwattr $C$DW$259, DW_AT_location[DW_OP_breg13 24]
    2596                    
    2597                    ;----------------------------------------------------------------------
    2598                    ; 347 | int32_t SlNetIfWifi_send(int16_t sd, void *sdContext, const void *buf,
    2599                    ;     | uint32_t len, uint32_t flags)                                          
    2600                    ;----------------------------------------------------------------------
    2601                    
    2602                    ;*****************************************************************************
    2603                    ;* FUNCTION NAME: SlNetIfWifi_send                                           *
    2604                    ;*                                                                           *
    2605                    ;*   Regs Modified     : A1,A2,A3,A4,V4,V9,SP,LR,SR                          *
    2606                    ;*   Regs Used         : A1,A2,A3,A4,V4,V9,SP,LR,SR                          *
    2607                    ;*   Local Frame Size  : 0 Args + 16 Auto + 8 Save = 24 byte                 *
    2608                    ;*****************************************************************************
    2609 00000000           SlNetIfWifi_send:
    2610                    ;* --------------------------------------------------------------------------*
    2611                            .dwcfi  cfa_offset, 0
    2612 00000000 B58F              PUSH      {A1, A2, A3, A4, V4, LR} ; [DPU_V7M3_PIPE]  ; [ORIG 16-BIT INS]
    2613                            .dwcfi  cfa_offset, 24
    2614                            .dwcfi  save_reg_to_mem, 14, -4
    2615                            .dwcfi  save_reg_to_mem, 7, -8
    2616                            .dwcfi  save_reg_to_mem, 3, -12
    2617                            .dwcfi  save_reg_to_mem, 2, -16
    2618                            .dwcfi  save_reg_to_mem, 1, -20
    2619                            .dwcfi  save_reg_to_mem, 0, -24
    2620 00000002 AF06              ADD       V4, SP, #24           ; [DPU_V7M3_PIPE]  ; [ORIG 16-BIT INS]
    2621                    $C$DW$260       .dwtag  DW_TAG_variable
    2622                            .dwattr $C$DW$260, DW_AT_name("sdContext")
    2623                            .dwattr $C$DW$260, DW_AT_TI_symbol_name("sdContext")
    2624                            .dwattr $C$DW$260, DW_AT_type(*$C$DW$T$3)
    2625                            .dwattr $C$DW$260, DW_AT_location[DW_OP_breg13 0]
    2626                    
    2627                    $C$DW$261       .dwtag  DW_TAG_variable
    2628                            .dwattr $C$DW$261, DW_AT_name("buf")
    2629                            .dwattr $C$DW$261, DW_AT_TI_symbol_name("buf")
    2630                            .dwattr $C$DW$261, DW_AT_type(*$C$DW$T$372)
    2631                            .dwattr $C$DW$261, DW_AT_location[DW_OP_breg13 4]
    2632                    
    2633                    $C$DW$262       .dwtag  DW_TAG_variable
    2634                            .dwattr $C$DW$262, DW_AT_name("len")
    2635                            .dwattr $C$DW$262, DW_AT_TI_symbol_name("len")
    2636                            .dwattr $C$DW$262, DW_AT_type(*$C$DW$T$32)
    2637                            .dwattr $C$DW$262, DW_AT_location[DW_OP_breg13 8]
    2638                    
    2639                    $C$DW$263       .dwtag  DW_TAG_variable
    2640                            .dwattr $C$DW$263, DW_AT_name("sd")
TI ARM Assembler Unix v20.2.0 Thu Mar 19 13:13:13 2020

Copyright (c) 1996-2018 Texas Instruments Incorporated
slnetifwifi.asm                                                      PAGE   49

    2641                            .dwattr $C$DW$263, DW_AT_TI_symbol_name("sd")
    2642                            .dwattr $C$DW$263, DW_AT_type(*$C$DW$T$333)
    2643                            .dwattr $C$DW$263, DW_AT_location[DW_OP_breg13 12]
    2644                    
    2645 00000004 9302              STR       A4, [SP, #8]          ; [DPU_V7M3_PIPE] |348|  ; [ORIG 16-BIT INS]
    2646 00000006 9201              STR       A3, [SP, #4]          ; [DPU_V7M3_PIPE] |348|  ; [ORIG 16-BIT INS]
    2647 00000008 9100              STR       A2, [SP, #0]          ; [DPU_V7M3_PIPE] |348|  ; [ORIG 16-BIT INS]
    2648 0000000a 000CF8AD          STRH      A1, [SP, #12]         ; [DPU_V7M3_PIPE] |348|  ; [KEEP 32-BIT INS]
    2649                            .dwpsn  file "/vagrant/Q1_eng_19.3.20/sdk_root/source/ti/drivers/net/wifi/slnetif/slnetifwifi.
    2650                    ;----------------------------------------------------------------------
    2651                    ; 349 | DISABLE_SEC_BITS_FROM_INPUT_FLAGS(flags);                              
    2652                    ;----------------------------------------------------------------------
    2653 0000000e 6838              LDR       A1, [V4, #0]          ; [DPU_V7M3_PIPE] |349|  ; [ORIG 16-BIT INS]
    2654 00000010 407FF020          BIC       A1, A1, #-16777216    ; [DPU_V7M3_PIPE] |349|  ; [KEEP 32-BIT INS]
    2655 00000014 6038              STR       A1, [V4, #0]          ; [DPU_V7M3_PIPE] |349|  ; [ORIG 16-BIT INS]
    2656                            .dwpsn  file "/vagrant/Q1_eng_19.3.20/sdk_root/source/ti/drivers/net/wifi/slnetif/slnetifwifi.
    2657                    ;----------------------------------------------------------------------
    2658                    ; 350 | return sl_Send(sd, buf, len, flags);                                   
    2659                    ;----------------------------------------------------------------------
    2660 00000016 000CF9BD          LDRSH     A1, [SP, #12]         ; [DPU_V7M3_PIPE] |350|  ; [KEEP 32-BIT INS]
    2661 0000001a 2008F9BD          LDRSH     A3, [SP, #8]          ; [DPU_V7M3_PIPE] |350|  ; [KEEP 32-BIT INS]
    2662 0000001e 3000F9B7          LDRSH     A4, [V4, #0]          ; [DPU_V7M3_PIPE] |350|  ; [KEEP 32-BIT INS]
    2663 00000022 9901              LDR       A2, [SP, #4]          ; [DPU_V7M3_PIPE] |350|  ; [ORIG 16-BIT INS]
    2664                    $C$DW$264       .dwtag  DW_TAG_TI_branch
    2665                            .dwattr $C$DW$264, DW_AT_low_pc(0x00)
    2666                            .dwattr $C$DW$264, DW_AT_name("sl_Send")
    2667                            .dwattr $C$DW$264, DW_AT_TI_call
    2668                    
    2669 00000024 FFFEF7FF!         BL        sl_Send               ; [DPU_V7M3_PIPE] |350|  ; [KEEP 32-BIT INS]
    2670                            ; CALL OCCURS {sl_Send }         ; [] |350| 
    2671                            .dwpsn  file "/vagrant/Q1_eng_19.3.20/sdk_root/source/ti/drivers/net/wifi/slnetif/slnetifwifi.
    2672 00000028 9000              STR       A1, [SP, #0]          ; [DPU_V7M3_PIPE]  ; [ORIG 16-BIT INS]
    2673                    $C$DW$265       .dwtag  DW_TAG_TI_branch
    2674                            .dwattr $C$DW$265, DW_AT_low_pc(0x00)
    2675                            .dwattr $C$DW$265, DW_AT_TI_return
    2676                    
    2677 0000002a BD8F              POP       {A1, A2, A3, A4, V4, PC} ; [DPU_V7M3_PIPE]  ; [ORIG 16-BIT INS]
    2678                            .dwcfi  cfa_offset, 0
    2679                            .dwcfi  restore_reg, 7
    2680                            .dwcfi  restore_reg, 3
    2681                            .dwcfi  restore_reg, 2
    2682                            .dwcfi  restore_reg, 1
    2683                            .dwcfi  restore_reg, 0
    2684                            ; BRANCH OCCURS                  ; [] 
    2685                            .dwattr $C$DW$254, DW_AT_TI_end_file("/vagrant/Q1_eng_19.3.20/sdk_root/source/ti/drivers/net/w
    2686                            .dwattr $C$DW$254, DW_AT_TI_end_line(0x15f)
    2687                            .dwattr $C$DW$254, DW_AT_TI_end_column(0x01)
    2688                            .dwendentry
    2689                            .dwendtag $C$DW$254
    2690                    
    2691 00000000                   .sect   ".text:SlNetIfWifi_sendTo"
    2692                            .clink
    2693                            .thumbfunc SlNetIfWifi_sendTo
    2694 00000000                   .thumb
    2695                            .global SlNetIfWifi_sendTo
TI ARM Assembler Unix v20.2.0 Thu Mar 19 13:13:13 2020

Copyright (c) 1996-2018 Texas Instruments Incorporated
slnetifwifi.asm                                                      PAGE   50

    2696                    
    2697                    $C$DW$266       .dwtag  DW_TAG_subprogram
    2698                            .dwattr $C$DW$266, DW_AT_name("SlNetIfWifi_sendTo")
    2699                            .dwattr $C$DW$266, DW_AT_low_pc(SlNetIfWifi_sendTo)
    2700                            .dwattr $C$DW$266, DW_AT_high_pc(0x00)
    2701                            .dwattr $C$DW$266, DW_AT_TI_symbol_name("SlNetIfWifi_sendTo")
    2702                            .dwattr $C$DW$266, DW_AT_external
    2703                            .dwattr $C$DW$266, DW_AT_type(*$C$DW$T$338)
    2704                            .dwattr $C$DW$266, DW_AT_TI_begin_file("/vagrant/Q1_eng_19.3.20/sdk_root/source/ti/drivers/net
    2705                            .dwattr $C$DW$266, DW_AT_TI_begin_line(0x167)
    2706                            .dwattr $C$DW$266, DW_AT_TI_begin_column(0x09)
    2707                            .dwattr $C$DW$266, DW_AT_decl_file("/vagrant/Q1_eng_19.3.20/sdk_root/source/ti/drivers/net/wif
    2708                            .dwattr $C$DW$266, DW_AT_decl_line(0x167)
    2709                            .dwattr $C$DW$266, DW_AT_decl_column(0x09)
    2710                            .dwattr $C$DW$266, DW_AT_TI_max_frame_size(0x20)
    2711                            .dwpsn  file "/vagrant/Q1_eng_19.3.20/sdk_root/source/ti/drivers/net/wifi/slnetif/slnetifwifi.
    2712                    
    2713                            .dwfde $C$DW$CIE, SlNetIfWifi_sendTo
    2714                    $C$DW$267       .dwtag  DW_TAG_formal_parameter
    2715                            .dwattr $C$DW$267, DW_AT_name("sd")
    2716                            .dwattr $C$DW$267, DW_AT_TI_symbol_name("sd")
    2717                            .dwattr $C$DW$267, DW_AT_type(*$C$DW$T$10)
    2718                            .dwattr $C$DW$267, DW_AT_location[DW_OP_reg0]
    2719                    
    2720                    $C$DW$268       .dwtag  DW_TAG_formal_parameter
    2721                            .dwattr $C$DW$268, DW_AT_name("sdContext")
    2722                            .dwattr $C$DW$268, DW_AT_TI_symbol_name("sdContext")
    2723                            .dwattr $C$DW$268, DW_AT_type(*$C$DW$T$3)
    2724                            .dwattr $C$DW$268, DW_AT_location[DW_OP_reg1]
    2725                    
    2726                    $C$DW$269       .dwtag  DW_TAG_formal_parameter
    2727                            .dwattr $C$DW$269, DW_AT_name("buf")
    2728                            .dwattr $C$DW$269, DW_AT_TI_symbol_name("buf")
    2729                            .dwattr $C$DW$269, DW_AT_type(*$C$DW$T$372)
    2730                            .dwattr $C$DW$269, DW_AT_location[DW_OP_reg2]
    2731                    
    2732                    $C$DW$270       .dwtag  DW_TAG_formal_parameter
    2733                            .dwattr $C$DW$270, DW_AT_name("len")
    2734                            .dwattr $C$DW$270, DW_AT_TI_symbol_name("len")
    2735                            .dwattr $C$DW$270, DW_AT_type(*$C$DW$T$32)
    2736                            .dwattr $C$DW$270, DW_AT_location[DW_OP_reg3]
    2737                    
    2738                    $C$DW$271       .dwtag  DW_TAG_formal_parameter
    2739                            .dwattr $C$DW$271, DW_AT_name("flags")
    2740                            .dwattr $C$DW$271, DW_AT_TI_symbol_name("flags")
    2741                            .dwattr $C$DW$271, DW_AT_type(*$C$DW$T$32)
    2742                            .dwattr $C$DW$271, DW_AT_location[DW_OP_breg13 32]
    2743                    
    2744                    $C$DW$272       .dwtag  DW_TAG_formal_parameter
    2745                            .dwattr $C$DW$272, DW_AT_name("to")
    2746                            .dwattr $C$DW$272, DW_AT_TI_symbol_name("to")
    2747                            .dwattr $C$DW$272, DW_AT_type(*$C$DW$T$350)
    2748                            .dwattr $C$DW$272, DW_AT_location[DW_OP_breg13 36]
    2749                    
    2750                    $C$DW$273       .dwtag  DW_TAG_formal_parameter
TI ARM Assembler Unix v20.2.0 Thu Mar 19 13:13:13 2020

Copyright (c) 1996-2018 Texas Instruments Incorporated
slnetifwifi.asm                                                      PAGE   51

    2751                            .dwattr $C$DW$273, DW_AT_name("tolen")
    2752                            .dwattr $C$DW$273, DW_AT_TI_symbol_name("tolen")
    2753                            .dwattr $C$DW$273, DW_AT_type(*$C$DW$T$10)
    2754                            .dwattr $C$DW$273, DW_AT_location[DW_OP_breg13 40]
    2755                    
    2756                    ;----------------------------------------------------------------------
    2757                    ; 359 | int32_t SlNetIfWifi_sendTo(int16_t sd, void *sdContext, const void *buf
    2758                    ;     | , uint32_t len, uint32_t flags, const SlNetSock_Addr_t *to, SlNetSockle
    2759                    ;     | n_t tolen)                                                             
    2760                    ;----------------------------------------------------------------------
    2761                    
    2762                    ;*****************************************************************************
    2763                    ;* FUNCTION NAME: SlNetIfWifi_sendTo                                         *
    2764                    ;*                                                                           *
    2765                    ;*   Regs Modified     : A1,A2,A3,A4,V4,V9,SP,LR,SR                          *
    2766                    ;*   Regs Used         : A1,A2,A3,A4,V4,V9,SP,LR,SR                          *
    2767                    ;*   Local Frame Size  : 8 Args + 16 Auto + 8 Save = 32 byte                 *
    2768                    ;*****************************************************************************
    2769 00000000           SlNetIfWifi_sendTo:
    2770                    ;* --------------------------------------------------------------------------*
    2771                            .dwcfi  cfa_offset, 0
    2772 00000000 B580              PUSH      {V4, LR}              ; [DPU_V7M3_PIPE]  ; [ORIG 16-BIT INS]
    2773                            .dwcfi  cfa_offset, 8
    2774                            .dwcfi  save_reg_to_mem, 14, -4
    2775                            .dwcfi  save_reg_to_mem, 7, -8
    2776 00000002 AF02              ADD       V4, SP, #8            ; [DPU_V7M3_PIPE]  ; [ORIG 16-BIT INS]
    2777 00000004 0D18F1AD          SUB       SP, SP, #24           ; [DPU_V7M3_PIPE]  ; [KEEP 32-BIT INS]
    2778                            .dwcfi  cfa_offset, 32
    2779                    $C$DW$274       .dwtag  DW_TAG_variable
    2780                            .dwattr $C$DW$274, DW_AT_name("sdContext")
    2781                            .dwattr $C$DW$274, DW_AT_TI_symbol_name("sdContext")
    2782                            .dwattr $C$DW$274, DW_AT_type(*$C$DW$T$3)
    2783                            .dwattr $C$DW$274, DW_AT_location[DW_OP_breg13 8]
    2784                    
    2785                    $C$DW$275       .dwtag  DW_TAG_variable
    2786                            .dwattr $C$DW$275, DW_AT_name("buf")
    2787                            .dwattr $C$DW$275, DW_AT_TI_symbol_name("buf")
    2788                            .dwattr $C$DW$275, DW_AT_type(*$C$DW$T$372)
    2789                            .dwattr $C$DW$275, DW_AT_location[DW_OP_breg13 12]
    2790                    
    2791                    $C$DW$276       .dwtag  DW_TAG_variable
    2792                            .dwattr $C$DW$276, DW_AT_name("len")
    2793                            .dwattr $C$DW$276, DW_AT_TI_symbol_name("len")
    2794                            .dwattr $C$DW$276, DW_AT_type(*$C$DW$T$32)
    2795                            .dwattr $C$DW$276, DW_AT_location[DW_OP_breg13 16]
    2796                    
    2797                    $C$DW$277       .dwtag  DW_TAG_variable
    2798                            .dwattr $C$DW$277, DW_AT_name("sd")
    2799                            .dwattr $C$DW$277, DW_AT_TI_symbol_name("sd")
    2800                            .dwattr $C$DW$277, DW_AT_type(*$C$DW$T$333)
    2801                            .dwattr $C$DW$277, DW_AT_location[DW_OP_breg13 20]
    2802                    
    2803 00000008 9304              STR       A4, [SP, #16]         ; [DPU_V7M3_PIPE] |360|  ; [ORIG 16-BIT INS]
    2804 0000000a 9203              STR       A3, [SP, #12]         ; [DPU_V7M3_PIPE] |360|  ; [ORIG 16-BIT INS]
    2805 0000000c 9102              STR       A2, [SP, #8]          ; [DPU_V7M3_PIPE] |360|  ; [ORIG 16-BIT INS]
TI ARM Assembler Unix v20.2.0 Thu Mar 19 13:13:13 2020

Copyright (c) 1996-2018 Texas Instruments Incorporated
slnetifwifi.asm                                                      PAGE   52

    2806 0000000e 0014F8AD          STRH      A1, [SP, #20]         ; [DPU_V7M3_PIPE] |360|  ; [KEEP 32-BIT INS]
    2807                            .dwpsn  file "/vagrant/Q1_eng_19.3.20/sdk_root/source/ti/drivers/net/wifi/slnetif/slnetifwifi.
    2808                    ;----------------------------------------------------------------------
    2809                    ; 361 | DISABLE_SEC_BITS_FROM_INPUT_FLAGS(flags);                              
    2810                    ;----------------------------------------------------------------------
    2811 00000012 6838              LDR       A1, [V4, #0]          ; [DPU_V7M3_PIPE] |361|  ; [ORIG 16-BIT INS]
    2812 00000014 407FF020          BIC       A1, A1, #-16777216    ; [DPU_V7M3_PIPE] |361|  ; [KEEP 32-BIT INS]
    2813 00000018 6038              STR       A1, [V4, #0]          ; [DPU_V7M3_PIPE] |361|  ; [ORIG 16-BIT INS]
    2814                            .dwpsn  file "/vagrant/Q1_eng_19.3.20/sdk_root/source/ti/drivers/net/wifi/slnetif/slnetifwifi.
    2815                    ;----------------------------------------------------------------------
    2816                    ; 362 | return sl_SendTo(sd, buf, len, flags, (const SlSockAddr_t *)to, tolen);
    2817                    ;----------------------------------------------------------------------
    2818 0000001a 6878              LDR       A1, [V4, #4]          ; [DPU_V7M3_PIPE] |362|  ; [ORIG 16-BIT INS]
    2819 0000001c 9000              STR       A1, [SP, #0]          ; [DPU_V7M3_PIPE] |362|  ; [ORIG 16-BIT INS]
    2820 0000001e 8938              LDRH      A1, [V4, #8]          ; [DPU_V7M3_PIPE] |362|  ; [ORIG 16-BIT INS]
    2821 00000020 9001              STR       A1, [SP, #4]          ; [DPU_V7M3_PIPE] |362|  ; [ORIG 16-BIT INS]
    2822 00000022 2010F9BD          LDRSH     A3, [SP, #16]         ; [DPU_V7M3_PIPE] |362|  ; [KEEP 32-BIT INS]
    2823 00000026 3000F9B7          LDRSH     A4, [V4, #0]          ; [DPU_V7M3_PIPE] |362|  ; [KEEP 32-BIT INS]
    2824 0000002a 9903              LDR       A2, [SP, #12]         ; [DPU_V7M3_PIPE] |362|  ; [ORIG 16-BIT INS]
    2825 0000002c 0014F9BD          LDRSH     A1, [SP, #20]         ; [DPU_V7M3_PIPE] |362|  ; [KEEP 32-BIT INS]
    2826                    $C$DW$278       .dwtag  DW_TAG_TI_branch
    2827                            .dwattr $C$DW$278, DW_AT_low_pc(0x00)
    2828                            .dwattr $C$DW$278, DW_AT_name("sl_SendTo")
    2829                            .dwattr $C$DW$278, DW_AT_TI_call
    2830                    
    2831 00000030 FFFEF7FF!         BL        sl_SendTo             ; [DPU_V7M3_PIPE] |362|  ; [KEEP 32-BIT INS]
    2832                            ; CALL OCCURS {sl_SendTo }       ; [] |362| 
    2833                            .dwpsn  file "/vagrant/Q1_eng_19.3.20/sdk_root/source/ti/drivers/net/wifi/slnetif/slnetifwifi.
    2834 00000034 B006              ADD       SP, SP, #24           ; [DPU_V7M3_PIPE]  ; [ORIG 16-BIT INS]
    2835                            .dwcfi  cfa_offset, 8
    2836                    $C$DW$279       .dwtag  DW_TAG_TI_branch
    2837                            .dwattr $C$DW$279, DW_AT_low_pc(0x00)
    2838                            .dwattr $C$DW$279, DW_AT_TI_return
    2839                    
    2840 00000036 BD80              POP       {V4, PC}              ; [DPU_V7M3_PIPE]  ; [ORIG 16-BIT INS]
    2841                            .dwcfi  cfa_offset, 0
    2842                            .dwcfi  restore_reg, 7
    2843                            ; BRANCH OCCURS                  ; [] 
    2844                            .dwattr $C$DW$266, DW_AT_TI_end_file("/vagrant/Q1_eng_19.3.20/sdk_root/source/ti/drivers/net/w
    2845                            .dwattr $C$DW$266, DW_AT_TI_end_line(0x16b)
    2846                            .dwattr $C$DW$266, DW_AT_TI_end_column(0x01)
    2847                            .dwendentry
    2848                            .dwendtag $C$DW$266
    2849                    
    2850 00000000                   .sect   ".text:SlNetIfWifi_sockstartSec"
    2851                            .clink
    2852                            .thumbfunc SlNetIfWifi_sockstartSec
    2853 00000000                   .thumb
    2854                            .global SlNetIfWifi_sockstartSec
    2855                    
    2856                    $C$DW$280       .dwtag  DW_TAG_subprogram
    2857                            .dwattr $C$DW$280, DW_AT_name("SlNetIfWifi_sockstartSec")
    2858                            .dwattr $C$DW$280, DW_AT_low_pc(SlNetIfWifi_sockstartSec)
    2859                            .dwattr $C$DW$280, DW_AT_high_pc(0x00)
    2860                            .dwattr $C$DW$280, DW_AT_TI_symbol_name("SlNetIfWifi_sockstartSec")
TI ARM Assembler Unix v20.2.0 Thu Mar 19 13:13:13 2020

Copyright (c) 1996-2018 Texas Instruments Incorporated
slnetifwifi.asm                                                      PAGE   53

    2861                            .dwattr $C$DW$280, DW_AT_external
    2862                            .dwattr $C$DW$280, DW_AT_type(*$C$DW$T$338)
    2863                            .dwattr $C$DW$280, DW_AT_TI_begin_file("/vagrant/Q1_eng_19.3.20/sdk_root/source/ti/drivers/net
    2864                            .dwattr $C$DW$280, DW_AT_TI_begin_line(0x173)
    2865                            .dwattr $C$DW$280, DW_AT_TI_begin_column(0x09)
    2866                            .dwattr $C$DW$280, DW_AT_decl_file("/vagrant/Q1_eng_19.3.20/sdk_root/source/ti/drivers/net/wif
    2867                            .dwattr $C$DW$280, DW_AT_decl_line(0x173)
    2868                            .dwattr $C$DW$280, DW_AT_decl_column(0x09)
    2869                            .dwattr $C$DW$280, DW_AT_TI_max_frame_size(0x20)
    2870                            .dwpsn  file "/vagrant/Q1_eng_19.3.20/sdk_root/source/ti/drivers/net/wifi/slnetif/slnetifwifi.
    2871                    
    2872                            .dwfde $C$DW$CIE, SlNetIfWifi_sockstartSec
    2873                    $C$DW$281       .dwtag  DW_TAG_formal_parameter
    2874                            .dwattr $C$DW$281, DW_AT_name("sd")
    2875                            .dwattr $C$DW$281, DW_AT_TI_symbol_name("sd")
    2876                            .dwattr $C$DW$281, DW_AT_type(*$C$DW$T$10)
    2877                            .dwattr $C$DW$281, DW_AT_location[DW_OP_reg0]
    2878                    
    2879                    $C$DW$282       .dwtag  DW_TAG_formal_parameter
    2880                            .dwattr $C$DW$282, DW_AT_name("sdContext")
    2881                            .dwattr $C$DW$282, DW_AT_TI_symbol_name("sdContext")
    2882                            .dwattr $C$DW$282, DW_AT_type(*$C$DW$T$3)
    2883                            .dwattr $C$DW$282, DW_AT_location[DW_OP_reg1]
    2884                    
    2885                    $C$DW$283       .dwtag  DW_TAG_formal_parameter
    2886                            .dwattr $C$DW$283, DW_AT_name("secAttrib")
    2887                            .dwattr $C$DW$283, DW_AT_TI_symbol_name("secAttrib")
    2888                            .dwattr $C$DW$283, DW_AT_type(*$C$DW$T$380)
    2889                            .dwattr $C$DW$283, DW_AT_location[DW_OP_reg2]
    2890                    
    2891                    $C$DW$284       .dwtag  DW_TAG_formal_parameter
    2892                            .dwattr $C$DW$284, DW_AT_name("flags")
    2893                            .dwattr $C$DW$284, DW_AT_TI_symbol_name("flags")
    2894                            .dwattr $C$DW$284, DW_AT_type(*$C$DW$T$10)
    2895                            .dwattr $C$DW$284, DW_AT_location[DW_OP_reg3]
    2896                    
    2897                    ;----------------------------------------------------------------------
    2898                    ; 371 | int32_t SlNetIfWifi_sockstartSec(int16_t sd, void *sdContext, SlNetSock
    2899                    ;     | SecAttrib_t *secAttrib, uint8_t flags)                                 
    2900                    ;----------------------------------------------------------------------
    2901                    
    2902                    ;*****************************************************************************
    2903                    ;* FUNCTION NAME: SlNetIfWifi_sockstartSec                                   *
    2904                    ;*                                                                           *
    2905                    ;*   Regs Modified     : A1,A2,A3,A4,V1,V9,SP,LR,SR                          *
    2906                    ;*   Regs Used         : A1,A2,A3,A4,V1,V9,SP,LR,SR                          *
    2907                    ;*   Local Frame Size  : 4 Args + 20 Auto + 8 Save = 32 byte                 *
    2908                    ;*****************************************************************************
    2909 00000000           SlNetIfWifi_sockstartSec:
    2910                    ;* --------------------------------------------------------------------------*
    2911                            .dwcfi  cfa_offset, 0
    2912 00000000 B510              PUSH      {V1, LR}              ; [DPU_V7M3_PIPE]  ; [ORIG 16-BIT INS]
    2913                            .dwcfi  cfa_offset, 8
    2914                            .dwcfi  save_reg_to_mem, 14, -4
    2915                            .dwcfi  save_reg_to_mem, 4, -8
TI ARM Assembler Unix v20.2.0 Thu Mar 19 13:13:13 2020

Copyright (c) 1996-2018 Texas Instruments Incorporated
slnetifwifi.asm                                                      PAGE   54

    2916 00000002 0D18F1AD          SUB       SP, SP, #24           ; [DPU_V7M3_PIPE]  ; [KEEP 32-BIT INS]
    2917                            .dwcfi  cfa_offset, 32
    2918                    $C$DW$285       .dwtag  DW_TAG_variable
    2919                            .dwattr $C$DW$285, DW_AT_name("sdContext")
    2920                            .dwattr $C$DW$285, DW_AT_TI_symbol_name("sdContext")
    2921                            .dwattr $C$DW$285, DW_AT_type(*$C$DW$T$3)
    2922                            .dwattr $C$DW$285, DW_AT_location[DW_OP_breg13 4]
    2923                    
    2924                    $C$DW$286       .dwtag  DW_TAG_variable
    2925                            .dwattr $C$DW$286, DW_AT_name("secAttrib")
    2926                            .dwattr $C$DW$286, DW_AT_TI_symbol_name("secAttrib")
    2927                            .dwattr $C$DW$286, DW_AT_type(*$C$DW$T$380)
    2928                            .dwattr $C$DW$286, DW_AT_location[DW_OP_breg13 8]
    2929                    
    2930                    $C$DW$287       .dwtag  DW_TAG_variable
    2931                            .dwattr $C$DW$287, DW_AT_name("tempSecAttrib")
    2932                            .dwattr $C$DW$287, DW_AT_TI_symbol_name("tempSecAttrib")
    2933                            .dwattr $C$DW$287, DW_AT_type(*$C$DW$T$378)
    2934                            .dwattr $C$DW$287, DW_AT_location[DW_OP_breg13 12]
    2935                    
    2936                    $C$DW$288       .dwtag  DW_TAG_variable
    2937                            .dwattr $C$DW$288, DW_AT_name("retVal")
    2938                            .dwattr $C$DW$288, DW_AT_TI_symbol_name("retVal")
    2939                            .dwattr $C$DW$288, DW_AT_type(*$C$DW$T$338)
    2940                            .dwattr $C$DW$288, DW_AT_location[DW_OP_breg13 16]
    2941                    
    2942                    $C$DW$289       .dwtag  DW_TAG_variable
    2943                            .dwattr $C$DW$289, DW_AT_name("sd")
    2944                            .dwattr $C$DW$289, DW_AT_TI_symbol_name("sd")
    2945                            .dwattr $C$DW$289, DW_AT_type(*$C$DW$T$333)
    2946                            .dwattr $C$DW$289, DW_AT_location[DW_OP_breg13 20]
    2947                    
    2948                    $C$DW$290       .dwtag  DW_TAG_variable
    2949                            .dwattr $C$DW$290, DW_AT_name("flags")
    2950                            .dwattr $C$DW$290, DW_AT_TI_symbol_name("flags")
    2951                            .dwattr $C$DW$290, DW_AT_type(*$C$DW$T$309)
    2952                            .dwattr $C$DW$290, DW_AT_location[DW_OP_breg13 22]
    2953                    
    2954 00000006 3016F88D          STRB      A4, [SP, #22]         ; [DPU_V7M3_PIPE] |372|  ; [KEEP 32-BIT INS]
    2955 0000000a 9202              STR       A3, [SP, #8]          ; [DPU_V7M3_PIPE] |372|  ; [ORIG 16-BIT INS]
    2956 0000000c 9101              STR       A2, [SP, #4]          ; [DPU_V7M3_PIPE] |372|  ; [ORIG 16-BIT INS]
    2957 0000000e 0014F8AD          STRH      A1, [SP, #20]         ; [DPU_V7M3_PIPE] |372|  ; [KEEP 32-BIT INS]
    2958                            .dwpsn  file "/vagrant/Q1_eng_19.3.20/sdk_root/source/ti/drivers/net/wifi/slnetif/slnetifwifi.
    2959                    ;----------------------------------------------------------------------
    2960                    ; 373 | SlNetSock_SecAttribNode_t *tempSecAttrib = *secAttrib;                 
    2961                    ;----------------------------------------------------------------------
    2962 00000012 9802              LDR       A1, [SP, #8]          ; [DPU_V7M3_PIPE] |373|  ; [ORIG 16-BIT INS]
    2963 00000014 6800              LDR       A1, [A1, #0]          ; [DPU_V7M3_PIPE] |373|  ; [ORIG 16-BIT INS]
    2964 00000016 9003              STR       A1, [SP, #12]         ; [DPU_V7M3_PIPE] |373|  ; [ORIG 16-BIT INS]
    2965                            .dwpsn  file "/vagrant/Q1_eng_19.3.20/sdk_root/source/ti/drivers/net/wifi/slnetif/slnetifwifi.
    2966                    ;----------------------------------------------------------------------
    2967                    ; 374 | int32_t                   retVal         = SLNETERR_RET_CODE_OK;       
    2968                    ;----------------------------------------------------------------------
    2969 00000018 2000              MOVS      A1, #0                ; [DPU_V7M3_PIPE] |374|  ; [ORIG 16-BIT INS]
    2970 0000001a 9004              STR       A1, [SP, #16]         ; [DPU_V7M3_PIPE] |374|  ; [ORIG 16-BIT INS]
TI ARM Assembler Unix v20.2.0 Thu Mar 19 13:13:13 2020

Copyright (c) 1996-2018 Texas Instruments Incorporated
slnetifwifi.asm                                                      PAGE   55

    2971                            .dwpsn  file "/vagrant/Q1_eng_19.3.20/sdk_root/source/ti/drivers/net/wifi/slnetif/slnetifwifi.
    2972                    ;----------------------------------------------------------------------
    2973                    ; 376 | if ( 0 != (flags & SLNETSOCK_SEC_BIND_CONTEXT_ONLY)  )                 
    2974                    ;----------------------------------------------------------------------
    2975 0000001c 0016F89D          LDRB      A1, [SP, #22]         ; [DPU_V7M3_PIPE] |376|  ; [KEEP 32-BIT INS]
    2976 00000020 0880              LSRS      A1, A1, #2            ; [DPU_V7M3_PIPE] |376|  ; [ORIG 16-BIT INS]
    2977 00000022 D31E              BCC       ||$C$L16||            ; [DPU_V7M3_PIPE] |376|  ; [ORIG 16-BIT INS]
    2978                            ; BRANCHCC OCCURS {||$C$L16||}   ; [] |376| 
    2979                    ;* --------------------------------------------------------------------------*
    2980                            .dwpsn  file "/vagrant/Q1_eng_19.3.20/sdk_root/source/ti/drivers/net/wifi/slnetif/slnetifwifi.
    2981                    ;----------------------------------------------------------------------
    2982                    ; 379 | while (NULL != tempSecAttrib)                                          
    2983                    ;----------------------------------------------------------------------
    2984 00000024 9803              LDR       A1, [SP, #12]         ; [DPU_V7M3_PIPE] |379|  ; [ORIG 16-BIT INS]
    2985 00000026 B1E0              CBZ       A1, ||$C$L16||        ; []  ; [ORIG 16-BIT INS]
    2986                            ; BRANCHCC OCCURS {||$C$L16||}   ; [] |379| 
    2987                    ;* --------------------------------------------------------------------------*
    2988                    ;*   BEGIN LOOP ||$C$L13||
    2989                    ;*
    2990                    ;*   Loop source line                : 379
    2991                    ;*   Loop closing brace source line  : 390
    2992                    ;*   Known Minimum Trip Count        : 1
    2993                    ;*   Known Maximum Trip Count        : 4294967295
    2994                    ;*   Known Max Trip Count Factor     : 1
    2995                    ;* --------------------------------------------------------------------------*
    2996 00000028           ||$C$L13||:    
